ARM GAS  /var/folders/g0/l1whnkgn26zgpvrkcv2dxrg40000gn/T//ccwTptqb.s 			page 1


   1              		.cpu cortex-m7
   2              		.arch armv7e-m
   3              		.fpu fpv5-d16
   4              		.eabi_attribute 28, 1
   5              		.eabi_attribute 20, 1
   6              		.eabi_attribute 21, 1
   7              		.eabi_attribute 23, 3
   8              		.eabi_attribute 24, 1
   9              		.eabi_attribute 25, 1
  10              		.eabi_attribute 26, 1
  11              		.eabi_attribute 30, 2
  12              		.eabi_attribute 34, 1
  13              		.eabi_attribute 18, 4
  14              		.file	"Pong.cpp"
  15              		.text
  16              	.Ltext0:
  17              		.cfi_sections	.debug_frame
  18              		.file 1 "Pong.cpp"
  19              		.section	.text._ZN5daisy6SwitchD2Ev,"axG",%progbits,_ZN5daisy6SwitchD5Ev,comdat
  20              		.align	1
  21              		.p2align 2,,3
  22              		.weak	_ZN5daisy6SwitchD2Ev
  23              		.syntax unified
  24              		.thumb
  25              		.thumb_func
  27              	_ZN5daisy6SwitchD2Ev:
  28              	.LVL0:
  29              	.LFB1443:
  30              		.file 2 "../../libDaisy//src/hid/switch.h"
   1:../../libDaisy//src/hid/switch.h **** #pragma once
   2:../../libDaisy//src/hid/switch.h **** #ifndef DSY_SWITCH_H
   3:../../libDaisy//src/hid/switch.h **** #define DSY_SWITCH_H
   4:../../libDaisy//src/hid/switch.h **** #include "daisy_core.h"
   5:../../libDaisy//src/hid/switch.h **** #include "per/gpio.h"
   6:../../libDaisy//src/hid/switch.h **** #include "sys/system.h"
   7:../../libDaisy//src/hid/switch.h **** 
   8:../../libDaisy//src/hid/switch.h **** namespace daisy
   9:../../libDaisy//src/hid/switch.h **** {
  10:../../libDaisy//src/hid/switch.h **** /** 
  11:../../libDaisy//src/hid/switch.h ****     Generic Class for handling momentary/latching switches \n 
  12:../../libDaisy//src/hid/switch.h ****     Inspired/influenced by Mutable Instruments (pichenettes) Switch classes
  13:../../libDaisy//src/hid/switch.h ****     @author Stephen Hensley
  14:../../libDaisy//src/hid/switch.h ****     @date December 2019
  15:../../libDaisy//src/hid/switch.h ****     @ingroup controls
  16:../../libDaisy//src/hid/switch.h **** */
  17:../../libDaisy//src/hid/switch.h **** class Switch
  18:../../libDaisy//src/hid/switch.h **** {
  19:../../libDaisy//src/hid/switch.h ****   public:
  20:../../libDaisy//src/hid/switch.h ****     /** Specifies the expected behavior of the switch */
  21:../../libDaisy//src/hid/switch.h ****     enum Type
  22:../../libDaisy//src/hid/switch.h ****     {
  23:../../libDaisy//src/hid/switch.h ****         TYPE_TOGGLE,    /**< & */
  24:../../libDaisy//src/hid/switch.h ****         TYPE_MOMENTARY, /**< & */
  25:../../libDaisy//src/hid/switch.h ****     };
  26:../../libDaisy//src/hid/switch.h ****     /** Specifies whether the pressed is HIGH or LOW. */
  27:../../libDaisy//src/hid/switch.h ****     enum Polarity
  28:../../libDaisy//src/hid/switch.h ****     {
ARM GAS  /var/folders/g0/l1whnkgn26zgpvrkcv2dxrg40000gn/T//ccwTptqb.s 			page 2


  29:../../libDaisy//src/hid/switch.h ****         POLARITY_NORMAL,   /**< & */
  30:../../libDaisy//src/hid/switch.h ****         POLARITY_INVERTED, /**< & */
  31:../../libDaisy//src/hid/switch.h ****     };
  32:../../libDaisy//src/hid/switch.h **** 
  33:../../libDaisy//src/hid/switch.h ****     /** Specifies whether to use built-in Pull Up/Down resistors to hold button at a given state wh
  34:../../libDaisy//src/hid/switch.h ****     enum Pull
  35:../../libDaisy//src/hid/switch.h ****     {
  36:../../libDaisy//src/hid/switch.h ****         PULL_UP,   /**< & */
  37:../../libDaisy//src/hid/switch.h ****         PULL_DOWN, /**< & */
  38:../../libDaisy//src/hid/switch.h ****         PULL_NONE, /**< & */
  39:../../libDaisy//src/hid/switch.h ****     };
  40:../../libDaisy//src/hid/switch.h **** 
  41:../../libDaisy//src/hid/switch.h ****     Switch() {}
  42:../../libDaisy//src/hid/switch.h ****     ~Switch() {}
  31              		.loc 2 42 5 view -0
  32              		.cfi_startproc
  33              		@ args = 0, pretend = 0, frame = 0
  34              		@ frame_needed = 0, uses_anonymous_args = 0
  35              		@ link register save eliminated.
  36              		.loc 2 42 16 is_stmt 0 view .LVU1
  37 0000 7047     		bx	lr
  38              		.cfi_endproc
  39              	.LFE1443:
  41              		.weak	_ZN5daisy6SwitchD1Ev
  42              		.thumb_set _ZN5daisy6SwitchD1Ev,_ZN5daisy6SwitchD2Ev
  43 0002 00BF     		.section	.text._ZN5daisy13AnalogControlD2Ev,"axG",%progbits,_ZN5daisy13AnalogControlD5Ev,comdat
  44              		.align	1
  45              		.p2align 2,,3
  46              		.weak	_ZN5daisy13AnalogControlD2Ev
  47              		.syntax unified
  48              		.thumb
  49              		.thumb_func
  51              	_ZN5daisy13AnalogControlD2Ev:
  52              	.LVL1:
  53              	.LFB1475:
  54              		.file 3 "../../libDaisy//src/hid/ctrl.h"
   1:../../libDaisy//src/hid/ctrl.h **** #pragma once
   2:../../libDaisy//src/hid/ctrl.h **** #ifndef DSY_KNOB_H
   3:../../libDaisy//src/hid/ctrl.h **** #define DSY_KNOB_H /**< & */
   4:../../libDaisy//src/hid/ctrl.h **** #include <stdint.h>
   5:../../libDaisy//src/hid/ctrl.h **** 
   6:../../libDaisy//src/hid/ctrl.h **** #ifdef __cplusplus
   7:../../libDaisy//src/hid/ctrl.h **** namespace daisy
   8:../../libDaisy//src/hid/ctrl.h **** {
   9:../../libDaisy//src/hid/ctrl.h **** /**
  10:../../libDaisy//src/hid/ctrl.h ****     @brief Hardware Interface for control inputs \n 
  11:../../libDaisy//src/hid/ctrl.h ****     Primarily designed for ADC input controls such as \n 
  12:../../libDaisy//src/hid/ctrl.h ****     potentiometers, and control voltage. \n 
  13:../../libDaisy//src/hid/ctrl.h ****     @author Stephen Hensley
  14:../../libDaisy//src/hid/ctrl.h ****     @date November 2019
  15:../../libDaisy//src/hid/ctrl.h ****     @ingroup controls
  16:../../libDaisy//src/hid/ctrl.h **** */
  17:../../libDaisy//src/hid/ctrl.h **** class AnalogControl
  18:../../libDaisy//src/hid/ctrl.h **** {
  19:../../libDaisy//src/hid/ctrl.h ****   public:
  20:../../libDaisy//src/hid/ctrl.h ****     /** Constructor */
  21:../../libDaisy//src/hid/ctrl.h ****     AnalogControl() {}
ARM GAS  /var/folders/g0/l1whnkgn26zgpvrkcv2dxrg40000gn/T//ccwTptqb.s 			page 3


  22:../../libDaisy//src/hid/ctrl.h ****     /** destructor */
  23:../../libDaisy//src/hid/ctrl.h ****     ~AnalogControl() {}
  55              		.loc 3 23 5 is_stmt 1 view -0
  56              		.cfi_startproc
  57              		@ args = 0, pretend = 0, frame = 0
  58              		@ frame_needed = 0, uses_anonymous_args = 0
  59              		@ link register save eliminated.
  60              		.loc 3 23 23 is_stmt 0 view .LVU3
  61 0000 7047     		bx	lr
  62              		.cfi_endproc
  63              	.LFE1475:
  65              		.weak	_ZN5daisy13AnalogControlD1Ev
  66              		.thumb_set _ZN5daisy13AnalogControlD1Ev,_ZN5daisy13AnalogControlD2Ev
  67 0002 00BF     		.section	.text._ZN5daisy9ParameterD2Ev,"axG",%progbits,_ZN5daisy9ParameterD5Ev,comdat
  68              		.align	1
  69              		.p2align 2,,3
  70              		.weak	_ZN5daisy9ParameterD2Ev
  71              		.syntax unified
  72              		.thumb
  73              		.thumb_func
  75              	_ZN5daisy9ParameterD2Ev:
  76              	.LVL2:
  77              	.LFB1492:
  78              		.file 4 "../../libDaisy//src/hid/parameter.h"
   1:../../libDaisy//src/hid/parameter.h **** #pragma once
   2:../../libDaisy//src/hid/parameter.h **** #include <stdint.h>
   3:../../libDaisy//src/hid/parameter.h **** #include "hid/ctrl.h"
   4:../../libDaisy//src/hid/parameter.h **** 
   5:../../libDaisy//src/hid/parameter.h **** namespace daisy
   6:../../libDaisy//src/hid/parameter.h **** {
   7:../../libDaisy//src/hid/parameter.h **** /** @addtogroup controls
   8:../../libDaisy//src/hid/parameter.h ****     @{
   9:../../libDaisy//src/hid/parameter.h **** */
  10:../../libDaisy//src/hid/parameter.h **** 
  11:../../libDaisy//src/hid/parameter.h **** /**      Simple parameter mapping tool that takes a 0-1 input from an hid_ctrl. */
  12:../../libDaisy//src/hid/parameter.h **** class Parameter
  13:../../libDaisy//src/hid/parameter.h **** {
  14:../../libDaisy//src/hid/parameter.h ****   public:
  15:../../libDaisy//src/hid/parameter.h ****     /** Curves are applied to the output signal */
  16:../../libDaisy//src/hid/parameter.h ****     enum Curve
  17:../../libDaisy//src/hid/parameter.h ****     {
  18:../../libDaisy//src/hid/parameter.h ****         LINEAR,      /**< Linear curve */
  19:../../libDaisy//src/hid/parameter.h ****         EXPONENTIAL, /**< Exponential curve */
  20:../../libDaisy//src/hid/parameter.h ****         LOGARITHMIC, /**<  Logarithmic curve */
  21:../../libDaisy//src/hid/parameter.h ****         CUBE,        /**< Cubic curve */
  22:../../libDaisy//src/hid/parameter.h ****         LAST,        /**< Final enum element. */
  23:../../libDaisy//src/hid/parameter.h ****     };
  24:../../libDaisy//src/hid/parameter.h ****     /** Constructor */
  25:../../libDaisy//src/hid/parameter.h ****     Parameter() {}
  26:../../libDaisy//src/hid/parameter.h ****     /** Destructor */
  27:../../libDaisy//src/hid/parameter.h ****     ~Parameter() {}
  79              		.loc 4 27 5 is_stmt 1 view -0
  80              		.cfi_startproc
  81              		@ args = 0, pretend = 0, frame = 0
  82              		@ frame_needed = 0, uses_anonymous_args = 0
  83              		@ link register save eliminated.
  84              	.LBB580:
ARM GAS  /var/folders/g0/l1whnkgn26zgpvrkcv2dxrg40000gn/T//ccwTptqb.s 			page 4


  85              	.LBI580:
  86              		.loc 3 23 5 view .LVU5
  87              		.loc 3 23 5 is_stmt 0 view .LVU6
  88              	.LBE580:
  89              		.loc 4 27 19 view .LVU7
  90 0000 7047     		bx	lr
  91              		.cfi_endproc
  92              	.LFE1492:
  94              		.weak	_ZN5daisy9ParameterD1Ev
  95              		.thumb_set _ZN5daisy9ParameterD1Ev,_ZN5daisy9ParameterD2Ev
  96 0002 00BF     		.section	.text._ZN5daisy9DaisySeedD2Ev,"axG",%progbits,_ZN5daisy9DaisySeedD5Ev,comdat
  97              		.align	1
  98              		.p2align 2,,3
  99              		.weak	_ZN5daisy9DaisySeedD2Ev
 100              		.syntax unified
 101              		.thumb
 102              		.thumb_func
 104              	_ZN5daisy9DaisySeedD2Ev:
 105              	.LVL3:
 106              	.LFB2359:
 107              		.file 5 "../../libDaisy//src/daisy_seed.h"
   1:../../libDaisy//src/daisy_seed.h **** #pragma once
   2:../../libDaisy//src/daisy_seed.h **** #ifndef DSY_SEED_H
   3:../../libDaisy//src/daisy_seed.h **** #define DSY_SEED_H
   4:../../libDaisy//src/daisy_seed.h **** 
   5:../../libDaisy//src/daisy_seed.h **** #include "daisy.h"
   6:../../libDaisy//src/daisy_seed.h **** 
   7:../../libDaisy//src/daisy_seed.h **** //Uncomment this out if you're still using the rev2 hardware
   8:../../libDaisy//src/daisy_seed.h **** //#define SEED_REV2
   9:../../libDaisy//src/daisy_seed.h **** 
  10:../../libDaisy//src/daisy_seed.h **** namespace daisy
  11:../../libDaisy//src/daisy_seed.h **** {
  12:../../libDaisy//src/daisy_seed.h **** /**
  13:../../libDaisy//src/daisy_seed.h ****    @brief This is the higher-level interface for the Daisy board. \n 
  14:../../libDaisy//src/daisy_seed.h ****     All basic peripheral configuration/initialization is setup here. \n
  15:../../libDaisy//src/daisy_seed.h **** 
  16:../../libDaisy//src/daisy_seed.h ****    @ingroup boards
  17:../../libDaisy//src/daisy_seed.h **** */
  18:../../libDaisy//src/daisy_seed.h **** class DaisySeed
  19:../../libDaisy//src/daisy_seed.h **** {
  20:../../libDaisy//src/daisy_seed.h ****   public:
  21:../../libDaisy//src/daisy_seed.h ****     DaisySeed() {}
  22:../../libDaisy//src/daisy_seed.h ****     ~DaisySeed() {}
 108              		.loc 5 22 5 is_stmt 1 view -0
 109              		.cfi_startproc
 110              		@ args = 0, pretend = 0, frame = 0
 111              		@ frame_needed = 0, uses_anonymous_args = 0
 112              		@ link register save eliminated.
 113              	.LBB581:
 114              	.LBI581:
 115              		.file 6 "../../libDaisy//src/sys/system.h"
   1:../../libDaisy//src/sys/system.h **** #ifndef DSY_SYSTEM_H
   2:../../libDaisy//src/sys/system.h **** #define DSY_SYSTEM_H
   3:../../libDaisy//src/sys/system.h **** 
   4:../../libDaisy//src/sys/system.h **** #ifndef UNIT_TEST // for unit tests, a dummy implementation is provided below
   5:../../libDaisy//src/sys/system.h **** 
   6:../../libDaisy//src/sys/system.h **** #include <cstdint>
ARM GAS  /var/folders/g0/l1whnkgn26zgpvrkcv2dxrg40000gn/T//ccwTptqb.s 			page 5


   7:../../libDaisy//src/sys/system.h **** #include "per/tim.h"
   8:../../libDaisy//src/sys/system.h **** 
   9:../../libDaisy//src/sys/system.h **** namespace daisy
  10:../../libDaisy//src/sys/system.h **** {
  11:../../libDaisy//src/sys/system.h **** /** A handle for interacting with the Core System. 
  12:../../libDaisy//src/sys/system.h ****  ** This includes the Clock tree, MPU, global DMA initialization,
  13:../../libDaisy//src/sys/system.h ****  ** cache handling, and any other necessary global initiailzation
  14:../../libDaisy//src/sys/system.h ****  **
  15:../../libDaisy//src/sys/system.h ****  ** @author shensley
  16:../../libDaisy//src/sys/system.h ****  ** @ingroup system
  17:../../libDaisy//src/sys/system.h ****  */
  18:../../libDaisy//src/sys/system.h **** class System
  19:../../libDaisy//src/sys/system.h **** {
  20:../../libDaisy//src/sys/system.h ****   public:
  21:../../libDaisy//src/sys/system.h ****     /** Contains settings for initializing the System */
  22:../../libDaisy//src/sys/system.h ****     struct Config
  23:../../libDaisy//src/sys/system.h ****     {
  24:../../libDaisy//src/sys/system.h ****         /** Specifies the system clock frequency that feeds APB/AHB clocks, etc. */
  25:../../libDaisy//src/sys/system.h ****         enum class SysClkFreq
  26:../../libDaisy//src/sys/system.h ****         {
  27:../../libDaisy//src/sys/system.h ****             FREQ_400MHZ,
  28:../../libDaisy//src/sys/system.h ****             FREQ_480MHZ,
  29:../../libDaisy//src/sys/system.h ****         };
  30:../../libDaisy//src/sys/system.h **** 
  31:../../libDaisy//src/sys/system.h ****         /** Method to call on the struct to set to defaults
  32:../../libDaisy//src/sys/system.h ****          ** CPU Freq set to 400MHz
  33:../../libDaisy//src/sys/system.h ****          ** Cache Enabled 
  34:../../libDaisy//src/sys/system.h ****          ** */
  35:../../libDaisy//src/sys/system.h ****         void Defaults()
  36:../../libDaisy//src/sys/system.h ****         {
  37:../../libDaisy//src/sys/system.h ****             cpu_freq    = SysClkFreq::FREQ_400MHZ;
  38:../../libDaisy//src/sys/system.h ****             use_dcache  = true;
  39:../../libDaisy//src/sys/system.h ****             use_icache  = true;
  40:../../libDaisy//src/sys/system.h ****             skip_clocks = false;
  41:../../libDaisy//src/sys/system.h ****         }
  42:../../libDaisy//src/sys/system.h **** 
  43:../../libDaisy//src/sys/system.h ****         /** Method to call on the struct to set to boost mode:
  44:../../libDaisy//src/sys/system.h ****          ** CPU Freq set to 480MHz
  45:../../libDaisy//src/sys/system.h ****          ** Cache Enabled 
  46:../../libDaisy//src/sys/system.h ****          ** */
  47:../../libDaisy//src/sys/system.h ****         void Boost()
  48:../../libDaisy//src/sys/system.h ****         {
  49:../../libDaisy//src/sys/system.h ****             cpu_freq    = SysClkFreq::FREQ_480MHZ;
  50:../../libDaisy//src/sys/system.h ****             use_dcache  = true;
  51:../../libDaisy//src/sys/system.h ****             use_icache  = true;
  52:../../libDaisy//src/sys/system.h ****             skip_clocks = false;
  53:../../libDaisy//src/sys/system.h ****         }
  54:../../libDaisy//src/sys/system.h **** 
  55:../../libDaisy//src/sys/system.h ****         SysClkFreq cpu_freq;
  56:../../libDaisy//src/sys/system.h ****         bool       use_dcache;
  57:../../libDaisy//src/sys/system.h ****         bool       use_icache;
  58:../../libDaisy//src/sys/system.h ****         bool       skip_clocks;
  59:../../libDaisy//src/sys/system.h ****     };
  60:../../libDaisy//src/sys/system.h **** 
  61:../../libDaisy//src/sys/system.h ****     /** Describes the different regions of memory available to the Daisy
  62:../../libDaisy//src/sys/system.h ****      * 
  63:../../libDaisy//src/sys/system.h ****      */
ARM GAS  /var/folders/g0/l1whnkgn26zgpvrkcv2dxrg40000gn/T//ccwTptqb.s 			page 6


  64:../../libDaisy//src/sys/system.h ****     enum MemoryRegion
  65:../../libDaisy//src/sys/system.h ****     {
  66:../../libDaisy//src/sys/system.h ****         INTERNAL_FLASH = 0,
  67:../../libDaisy//src/sys/system.h ****         ITCMRAM,
  68:../../libDaisy//src/sys/system.h ****         DTCMRAM,
  69:../../libDaisy//src/sys/system.h ****         SRAM_D1,
  70:../../libDaisy//src/sys/system.h ****         SRAM_D2,
  71:../../libDaisy//src/sys/system.h ****         SRAM_D3,
  72:../../libDaisy//src/sys/system.h ****         SDRAM,
  73:../../libDaisy//src/sys/system.h ****         QSPI,
  74:../../libDaisy//src/sys/system.h ****         INVALID_ADDRESS,
  75:../../libDaisy//src/sys/system.h ****     };
  76:../../libDaisy//src/sys/system.h **** 
  77:../../libDaisy//src/sys/system.h ****     System() {}
  78:../../libDaisy//src/sys/system.h ****     ~System() {}
 116              		.loc 6 78 5 view .LVU9
 117              		.loc 6 78 5 is_stmt 0 view .LVU10
 118              	.LBE581:
 119              	.LBB582:
 120              	.LBI582:
 121              		.file 7 "../../libDaisy//src/hid/usb.h"
   1:../../libDaisy//src/hid/usb.h **** #pragma once
   2:../../libDaisy//src/hid/usb.h **** #ifndef DSY_HID_USB_H
   3:../../libDaisy//src/hid/usb.h **** #define DSY_HID_USB_H
   4:../../libDaisy//src/hid/usb.h **** #include <stdint.h>
   5:../../libDaisy//src/hid/usb.h **** #include <stdlib.h>
   6:../../libDaisy//src/hid/usb.h **** 
   7:../../libDaisy//src/hid/usb.h **** namespace daisy
   8:../../libDaisy//src/hid/usb.h **** /** @addtogroup human_interface
   9:../../libDaisy//src/hid/usb.h ****     @{
  10:../../libDaisy//src/hid/usb.h **** */
  11:../../libDaisy//src/hid/usb.h **** 
  12:../../libDaisy//src/hid/usb.h **** {
  13:../../libDaisy//src/hid/usb.h **** /** 
  14:../../libDaisy//src/hid/usb.h ****     @brief Interface for initializing and using the USB Peripherals on the daisy
  15:../../libDaisy//src/hid/usb.h ****     @author Stephen Hensley
  16:../../libDaisy//src/hid/usb.h ****     @date December 2019
  17:../../libDaisy//src/hid/usb.h **** */
  18:../../libDaisy//src/hid/usb.h **** class UsbHandle
  19:../../libDaisy//src/hid/usb.h **** {
  20:../../libDaisy//src/hid/usb.h ****   public:
  21:../../libDaisy//src/hid/usb.h ****     /** Return values for USBHandle Functions */
  22:../../libDaisy//src/hid/usb.h ****     enum class Result
  23:../../libDaisy//src/hid/usb.h ****     {
  24:../../libDaisy//src/hid/usb.h ****         OK,
  25:../../libDaisy//src/hid/usb.h ****         ERR,
  26:../../libDaisy//src/hid/usb.h ****     };
  27:../../libDaisy//src/hid/usb.h **** 
  28:../../libDaisy//src/hid/usb.h ****     /** Specified which of the two USB Peripherals to initialize. */
  29:../../libDaisy//src/hid/usb.h ****     enum UsbPeriph
  30:../../libDaisy//src/hid/usb.h ****     {
  31:../../libDaisy//src/hid/usb.h ****         FS_INTERNAL, /**< Internal pin */
  32:../../libDaisy//src/hid/usb.h ****         FS_EXTERNAL, /**< FS External D+ pin is Pin 38 (GPIO32). FS External D- pin is Pin 37 (GPIO
  33:../../libDaisy//src/hid/usb.h ****         FS_BOTH,     /**< Both */
  34:../../libDaisy//src/hid/usb.h ****     };
  35:../../libDaisy//src/hid/usb.h **** 
  36:../../libDaisy//src/hid/usb.h **** 
ARM GAS  /var/folders/g0/l1whnkgn26zgpvrkcv2dxrg40000gn/T//ccwTptqb.s 			page 7


  37:../../libDaisy//src/hid/usb.h ****     /** Function called upon reception of a buffer */
  38:../../libDaisy//src/hid/usb.h ****     typedef void (*ReceiveCallback)(uint8_t* buff, uint32_t* len);
  39:../../libDaisy//src/hid/usb.h **** 
  40:../../libDaisy//src/hid/usb.h ****     UsbHandle() {}
  41:../../libDaisy//src/hid/usb.h **** 
  42:../../libDaisy//src/hid/usb.h ****     ~UsbHandle() {}
 122              		.loc 7 42 5 is_stmt 1 view .LVU11
 123              		.loc 7 42 5 is_stmt 0 view .LVU12
 124              	.LBE582:
 125              	.LBB583:
 126              	.LBI583:
 127              		.file 8 "../../libDaisy//src/per/adc.h"
   1:../../libDaisy//src/per/adc.h **** #pragma once
   2:../../libDaisy//src/per/adc.h **** #ifndef DSY_ADC_H
   3:../../libDaisy//src/per/adc.h **** #define DSY_ADC_H /**< Macro */
   4:../../libDaisy//src/per/adc.h **** #include <stdint.h>
   5:../../libDaisy//src/per/adc.h **** #include <stdlib.h>
   6:../../libDaisy//src/per/adc.h **** #include "daisy_core.h"
   7:../../libDaisy//src/per/adc.h **** #include "per/gpio.h"
   8:../../libDaisy//src/per/adc.h **** 
   9:../../libDaisy//src/per/adc.h **** #define DSY_ADC_MAX_CHANNELS 16 /**< Maximum number of ADC channels */
  10:../../libDaisy//src/per/adc.h **** 
  11:../../libDaisy//src/per/adc.h **** namespace daisy
  12:../../libDaisy//src/per/adc.h **** {
  13:../../libDaisy//src/per/adc.h **** /** @addtogroup per_analog
  14:../../libDaisy//src/per/adc.h ****     @{
  15:../../libDaisy//src/per/adc.h **** */
  16:../../libDaisy//src/per/adc.h **** 
  17:../../libDaisy//src/per/adc.h **** /* While there may not be many configuration options here,
  18:../../libDaisy//src/per/adc.h **** using a struct like this allows us to add more configuration
  19:../../libDaisy//src/per/adc.h **** later without breaking existing functionality.
  20:../../libDaisy//src/per/adc.h **** */
  21:../../libDaisy//src/per/adc.h **** 
  22:../../libDaisy//src/per/adc.h **** /** @brief   Configuration Structure for an ADC Channel 
  23:../../libDaisy//src/per/adc.h ****  *  @details This can be used to configure a a single input, 
  24:../../libDaisy//src/per/adc.h ****  *           or a multiplexed input, allowing up to 8 inputs on 
  25:../../libDaisy//src/per/adc.h ****  *           one channel.
  26:../../libDaisy//src/per/adc.h ****  *  @note    Sharing data lines to multiple muxes _is_ possible, but
  27:../../libDaisy//src/per/adc.h ****  *           each channel sharing data lines must be set to the maximum
  28:../../libDaisy//src/per/adc.h ****  *           number of channels, even if some multiplexers have fewer
  29:../../libDaisy//src/per/adc.h ****  *           inputs connected.
  30:../../libDaisy//src/per/adc.h **** */
  31:../../libDaisy//src/per/adc.h **** struct AdcChannelConfig
  32:../../libDaisy//src/per/adc.h **** {
  33:../../libDaisy//src/per/adc.h ****     /** Which pin to use for multiplexing */
  34:../../libDaisy//src/per/adc.h ****     enum MuxPin
  35:../../libDaisy//src/per/adc.h ****     {
  36:../../libDaisy//src/per/adc.h ****         MUX_SEL_0,    /**< & */
  37:../../libDaisy//src/per/adc.h ****         MUX_SEL_1,    /**< & */
  38:../../libDaisy//src/per/adc.h ****         MUX_SEL_2,    /**< & */
  39:../../libDaisy//src/per/adc.h ****         MUX_SEL_LAST, /**< & */
  40:../../libDaisy//src/per/adc.h ****     };
  41:../../libDaisy//src/per/adc.h **** 
  42:../../libDaisy//src/per/adc.h ****     /** \brief per channel conversion speed added to fixed time based on bitdepth, etc. */
  43:../../libDaisy//src/per/adc.h ****     enum ConversionSpeed
  44:../../libDaisy//src/per/adc.h ****     {
  45:../../libDaisy//src/per/adc.h ****         SPEED_1CYCLES_5,
ARM GAS  /var/folders/g0/l1whnkgn26zgpvrkcv2dxrg40000gn/T//ccwTptqb.s 			page 8


  46:../../libDaisy//src/per/adc.h ****         SPEED_2CYCLES_5,
  47:../../libDaisy//src/per/adc.h ****         SPEED_8CYCLES_5,
  48:../../libDaisy//src/per/adc.h ****         SPEED_16CYCLES_5,
  49:../../libDaisy//src/per/adc.h ****         SPEED_32CYCLES_5,
  50:../../libDaisy//src/per/adc.h ****         SPEED_64CYCLES_5,
  51:../../libDaisy//src/per/adc.h ****         SPEED_387CYCLES_5,
  52:../../libDaisy//src/per/adc.h ****         SPEED_810CYCLES_5,
  53:../../libDaisy//src/per/adc.h ****     };
  54:../../libDaisy//src/per/adc.h **** 
  55:../../libDaisy//src/per/adc.h ****     /** Initializes a single ADC pin as an ADC. 
  56:../../libDaisy//src/per/adc.h ****     \param pin Pin to init.
  57:../../libDaisy//src/per/adc.h ****     \param speed conversion speed for this pin defaults to 8.5 cycles
  58:../../libDaisy//src/per/adc.h ****      */
  59:../../libDaisy//src/per/adc.h ****     void InitSingle(dsy_gpio_pin pin, ConversionSpeed speed = SPEED_8CYCLES_5);
  60:../../libDaisy//src/per/adc.h **** 
  61:../../libDaisy//src/per/adc.h ****     /** 
  62:../../libDaisy//src/per/adc.h ****     Initializes a single ADC pin as a Multiplexed ADC.
  63:../../libDaisy//src/per/adc.h ****     Requires a CD405X Multiplexer connected to the pin.
  64:../../libDaisy//src/per/adc.h ****     You only need to supply the mux pins that are required,
  65:../../libDaisy//src/per/adc.h ****     e.g. a 4052 mux would only require mux_0 and mux_1.
  66:../../libDaisy//src/per/adc.h ****     Internal Callbacks handle the pin addressing.
  67:../../libDaisy//src/per/adc.h ****     \param adc_pin &
  68:../../libDaisy//src/per/adc.h ****     \param mux_channels must be 1-8
  69:../../libDaisy//src/per/adc.h ****     \param mux_0 First mux pin
  70:../../libDaisy//src/per/adc.h ****     \param mux_1 Second mux pin
  71:../../libDaisy//src/per/adc.h ****     \param mux_2 Third mux pin
  72:../../libDaisy//src/per/adc.h ****     \param speed conversion speed for this pin defaults to 8.5 cycles
  73:../../libDaisy//src/per/adc.h ****     */
  74:../../libDaisy//src/per/adc.h ****     void InitMux(dsy_gpio_pin    adc_pin,
  75:../../libDaisy//src/per/adc.h ****                  size_t          mux_channels,
  76:../../libDaisy//src/per/adc.h ****                  dsy_gpio_pin    mux_0,
  77:../../libDaisy//src/per/adc.h ****                  dsy_gpio_pin    mux_1 = {DSY_GPIOX, 0},
  78:../../libDaisy//src/per/adc.h ****                  dsy_gpio_pin    mux_2 = {DSY_GPIOX, 0},
  79:../../libDaisy//src/per/adc.h ****                  ConversionSpeed speed = SPEED_8CYCLES_5);
  80:../../libDaisy//src/per/adc.h **** 
  81:../../libDaisy//src/per/adc.h ****     dsy_gpio        pin_;                   /**< & */
  82:../../libDaisy//src/per/adc.h ****     dsy_gpio        mux_pin_[MUX_SEL_LAST]; /**< & */
  83:../../libDaisy//src/per/adc.h ****     uint8_t         mux_channels_;          /**< & */
  84:../../libDaisy//src/per/adc.h ****     ConversionSpeed speed_;
  85:../../libDaisy//src/per/adc.h **** };
  86:../../libDaisy//src/per/adc.h **** 
  87:../../libDaisy//src/per/adc.h **** /**
  88:../../libDaisy//src/per/adc.h ****    @brief Handler for analog to digital conversion
  89:../../libDaisy//src/per/adc.h **** */
  90:../../libDaisy//src/per/adc.h **** class AdcHandle
  91:../../libDaisy//src/per/adc.h **** {
  92:../../libDaisy//src/per/adc.h ****   public:
  93:../../libDaisy//src/per/adc.h ****     /** Supported oversampling amounts */
  94:../../libDaisy//src/per/adc.h ****     enum OverSampling
  95:../../libDaisy//src/per/adc.h ****     {
  96:../../libDaisy//src/per/adc.h ****         OVS_NONE, /**< & */
  97:../../libDaisy//src/per/adc.h ****         OVS_4,    /**< & */
  98:../../libDaisy//src/per/adc.h ****         OVS_8,    /**< & */
  99:../../libDaisy//src/per/adc.h ****         OVS_16,   /**< & */
 100:../../libDaisy//src/per/adc.h ****         OVS_32,   /**< & */
 101:../../libDaisy//src/per/adc.h ****         OVS_64,   /**< & */
 102:../../libDaisy//src/per/adc.h ****         OVS_128,  /**< & */
ARM GAS  /var/folders/g0/l1whnkgn26zgpvrkcv2dxrg40000gn/T//ccwTptqb.s 			page 9


 103:../../libDaisy//src/per/adc.h ****         OVS_256,  /**< & */
 104:../../libDaisy//src/per/adc.h ****         OVS_512,  /**< & */
 105:../../libDaisy//src/per/adc.h ****         OVS_1024, /**< & */
 106:../../libDaisy//src/per/adc.h ****         OVS_LAST, /**< & */
 107:../../libDaisy//src/per/adc.h ****     };
 108:../../libDaisy//src/per/adc.h **** 
 109:../../libDaisy//src/per/adc.h ****     AdcHandle() {}
 110:../../libDaisy//src/per/adc.h ****     ~AdcHandle() {}
 128              		.loc 8 110 5 is_stmt 1 view .LVU13
 129              		.loc 8 110 5 is_stmt 0 view .LVU14
 130              	.LBE583:
 131              	.LBB584:
 132              	.LBI584:
 133              		.file 9 "../../libDaisy//src/hid/audio.h"
   1:../../libDaisy//src/hid/audio.h **** #ifndef DSY_AUDIO_H
   2:../../libDaisy//src/hid/audio.h **** #define DSY_AUDIO_H /**< & */
   3:../../libDaisy//src/hid/audio.h **** 
   4:../../libDaisy//src/hid/audio.h **** #include "per/sai.h"
   5:../../libDaisy//src/hid/audio.h **** 
   6:../../libDaisy//src/hid/audio.h **** namespace daisy
   7:../../libDaisy//src/hid/audio.h **** {
   8:../../libDaisy//src/hid/audio.h **** /** @brief Audio Engine Handle
   9:../../libDaisy//src/hid/audio.h ****  *  @ingroup audio 
  10:../../libDaisy//src/hid/audio.h ****  *  @details This class allows for higher level access to an audio engine.
  11:../../libDaisy//src/hid/audio.h ****  *           If you're using a SOM like the DaisySeed or DaisyPatchSM (or any 
  12:../../libDaisy//src/hid/audio.h ****  *            board that includes one of those objects) then the intialization
  13:../../libDaisy//src/hid/audio.h ****  *            is already taken  care of.
  14:../../libDaisy//src/hid/audio.h ****  *           If you're setting up your own custom hardware, or need to make changes
  15:../../libDaisy//src/hid/audio.h ****  *           you will have to take the following steps:
  16:../../libDaisy//src/hid/audio.h ****  *             1. Create and Initialize an SaiHandle or two depending on your requirements
  17:../../libDaisy//src/hid/audio.h ****  *             2. Initialize the Audio Handle with the desired settings and the Initialized SaiHand
  18:../../libDaisy//src/hid/audio.h ****  *             3. If the connected codec requires special configuration or initialization, do so
  19:../../libDaisy//src/hid/audio.h ****  *             4. Write a callback method using either the AudioCallback or the InterleavingAudioCa
  20:../../libDaisy//src/hid/audio.h ****  *             5. Start the Audio using one of the StartAudio function
  21:../../libDaisy//src/hid/audio.h ****  */
  22:../../libDaisy//src/hid/audio.h **** class AudioHandle
  23:../../libDaisy//src/hid/audio.h **** {
  24:../../libDaisy//src/hid/audio.h ****   public:
  25:../../libDaisy//src/hid/audio.h ****     /** Manually configurable details about the Audio Engine */
  26:../../libDaisy//src/hid/audio.h ****     /** TODO: Figure out how to get samplerate in here. */
  27:../../libDaisy//src/hid/audio.h ****     struct Config
  28:../../libDaisy//src/hid/audio.h ****     {
  29:../../libDaisy//src/hid/audio.h ****         /** number of samples to process per callback */
  30:../../libDaisy//src/hid/audio.h ****         size_t blocksize;
  31:../../libDaisy//src/hid/audio.h **** 
  32:../../libDaisy//src/hid/audio.h ****         /**< Sample rate of audio */
  33:../../libDaisy//src/hid/audio.h ****         SaiHandle::Config::SampleRate samplerate;
  34:../../libDaisy//src/hid/audio.h **** 
  35:../../libDaisy//src/hid/audio.h ****         /** factor for adjustment before and after callback for hardware that may have extra headro
  36:../../libDaisy//src/hid/audio.h ****         float postgain;
  37:../../libDaisy//src/hid/audio.h **** 
  38:../../libDaisy//src/hid/audio.h ****         /** factor for additional one-sided compensation to audio path for hardware that may
  39:../../libDaisy//src/hid/audio.h ****          *  have unequal input/output ranges
  40:../../libDaisy//src/hid/audio.h ****          */
  41:../../libDaisy//src/hid/audio.h ****         float output_compensation;
  42:../../libDaisy//src/hid/audio.h **** 
  43:../../libDaisy//src/hid/audio.h ****         /** Sets default values for config struct */
ARM GAS  /var/folders/g0/l1whnkgn26zgpvrkcv2dxrg40000gn/T//ccwTptqb.s 			page 10


  44:../../libDaisy//src/hid/audio.h ****         Config()
  45:../../libDaisy//src/hid/audio.h ****         : blocksize(48),
  46:../../libDaisy//src/hid/audio.h ****           samplerate(SaiHandle::Config::SampleRate::SAI_48KHZ),
  47:../../libDaisy//src/hid/audio.h ****           postgain(1.f),
  48:../../libDaisy//src/hid/audio.h ****           output_compensation(1.f)
  49:../../libDaisy//src/hid/audio.h ****         {
  50:../../libDaisy//src/hid/audio.h ****         }
  51:../../libDaisy//src/hid/audio.h ****     };
  52:../../libDaisy//src/hid/audio.h **** 
  53:../../libDaisy//src/hid/audio.h ****     enum class Result
  54:../../libDaisy//src/hid/audio.h ****     {
  55:../../libDaisy//src/hid/audio.h ****         OK,
  56:../../libDaisy//src/hid/audio.h ****         ERR,
  57:../../libDaisy//src/hid/audio.h ****     };
  58:../../libDaisy//src/hid/audio.h **** 
  59:../../libDaisy//src/hid/audio.h ****     /** Non-Interleaving input buffer
  60:../../libDaisy//src/hid/audio.h ****      * Buffer arranged by float[chn][sample] 
  61:../../libDaisy//src/hid/audio.h ****      * const so that the user can't modify the input
  62:../../libDaisy//src/hid/audio.h ****      */
  63:../../libDaisy//src/hid/audio.h ****     typedef const float* const* InputBuffer;
  64:../../libDaisy//src/hid/audio.h **** 
  65:../../libDaisy//src/hid/audio.h ****     /** Non-Interleaving output buffer
  66:../../libDaisy//src/hid/audio.h ****      * Arranged by float[chn][sample] 
  67:../../libDaisy//src/hid/audio.h ****      */
  68:../../libDaisy//src/hid/audio.h ****     typedef float** OutputBuffer;
  69:../../libDaisy//src/hid/audio.h **** 
  70:../../libDaisy//src/hid/audio.h ****     /** Type for a Non-Interleaving audio callback 
  71:../../libDaisy//src/hid/audio.h ****      * Non-Interleaving audio callbacks in daisy will be of this type
  72:../../libDaisy//src/hid/audio.h ****      */
  73:../../libDaisy//src/hid/audio.h ****     typedef void (*AudioCallback)(InputBuffer  in,
  74:../../libDaisy//src/hid/audio.h ****                                   OutputBuffer out,
  75:../../libDaisy//src/hid/audio.h ****                                   size_t       size);
  76:../../libDaisy//src/hid/audio.h **** 
  77:../../libDaisy//src/hid/audio.h ****     /** Interleaving Input buffer
  78:../../libDaisy//src/hid/audio.h ****      ** audio is prepared as { L0, R0, L1, R1, . . . LN, RN }]
  79:../../libDaisy//src/hid/audio.h ****      ** this is const, as the user shouldn't modify it
  80:../../libDaisy//src/hid/audio.h ****     */
  81:../../libDaisy//src/hid/audio.h ****     typedef const float* InterleavingInputBuffer;
  82:../../libDaisy//src/hid/audio.h **** 
  83:../../libDaisy//src/hid/audio.h ****     /** Interleaving Output buffer 
  84:../../libDaisy//src/hid/audio.h ****      ** audio is prepared as { L0, R0, L1, R1, . . . LN, RN }
  85:../../libDaisy//src/hid/audio.h ****     */
  86:../../libDaisy//src/hid/audio.h ****     typedef float* InterleavingOutputBuffer;
  87:../../libDaisy//src/hid/audio.h **** 
  88:../../libDaisy//src/hid/audio.h ****     /** Interleaving Audio Callback 
  89:../../libDaisy//src/hid/audio.h ****      * Interleaving audio callbacks in daisy must be of this type
  90:../../libDaisy//src/hid/audio.h ****      */
  91:../../libDaisy//src/hid/audio.h ****     typedef void (*InterleavingAudioCallback)(InterleavingInputBuffer  in,
  92:../../libDaisy//src/hid/audio.h ****                                               InterleavingOutputBuffer out,
  93:../../libDaisy//src/hid/audio.h ****                                               size_t                   size);
  94:../../libDaisy//src/hid/audio.h **** 
  95:../../libDaisy//src/hid/audio.h ****     AudioHandle() : pimpl_(nullptr) {}
  96:../../libDaisy//src/hid/audio.h ****     ~AudioHandle() {}
 134              		.loc 9 96 5 is_stmt 1 view .LVU15
 135              		.loc 9 96 5 is_stmt 0 view .LVU16
 136              	.LBE584:
 137              		.loc 5 22 19 view .LVU17
ARM GAS  /var/folders/g0/l1whnkgn26zgpvrkcv2dxrg40000gn/T//ccwTptqb.s 			page 11


 138 0000 7047     		bx	lr
 139              		.cfi_endproc
 140              	.LFE2359:
 142              		.weak	_ZN5daisy9DaisySeedD1Ev
 143              		.thumb_set _ZN5daisy9DaisySeedD1Ev,_ZN5daisy9DaisySeedD2Ev
 144 0002 00BF     		.section	.text._Z13AudioCallbackPKPKfPPfj,"ax",%progbits
 145              		.align	1
 146              		.p2align 2,,3
 147              		.global	_Z13AudioCallbackPKPKfPPfj
 148              		.syntax unified
 149              		.thumb
 150              		.thumb_func
 152              	_Z13AudioCallbackPKPKfPPfj:
 153              	.LVL4:
 154              	.LFB4842:
   1:Pong.cpp      **** #include "daisy_seed.h"
   2:Pong.cpp      **** #include "daisysp.h"
   3:Pong.cpp      **** #include "dev/oled_ssd130x.h"
   4:Pong.cpp      **** #include <string>
   5:Pong.cpp      **** 
   6:Pong.cpp      **** using namespace daisy;
   7:Pong.cpp      **** using namespace daisysp;
   8:Pong.cpp      **** 
   9:Pong.cpp      **** DaisySeed   hw;
  10:Pong.cpp      ****    OledDisplay<SSD130xI2c128x64Driver>  display;
  11:Pong.cpp      **** 
  12:Pong.cpp      **** 
  13:Pong.cpp      **** #include "daisy_seed.h"
  14:Pong.cpp      **** #include "daisysp.h"
  15:Pong.cpp      **** #include "dev/oled_ssd130x.h"
  16:Pong.cpp      **** 
  17:Pong.cpp      **** using namespace daisy;
  18:Pong.cpp      **** using namespace daisysp;
  19:Pong.cpp      **** 
  20:Pong.cpp      **** 
  21:Pong.cpp      **** void drawField(int score1,int score2);
  22:Pong.cpp      **** void collisionControl();
  23:Pong.cpp      **** void drawBall();
  24:Pong.cpp      **** int max(int a, int b);
  25:Pong.cpp      **** int min(int a, int b);
  26:Pong.cpp      **** void drawRectangle (int16_t x, int16_t y, uint8_t w, uint8_t h, uint8_t color);
  27:Pong.cpp      **** void drawFastVLine (int16_t x, int16_t y, uint8_t h, uint8_t color);
  28:Pong.cpp      **** void drawFastHLine(int16_t x, int16_t y, uint8_t w, bool on);
  29:Pong.cpp      **** void fillRectangle(int16_t x, int16_t y, uint8_t w, uint8_t h, bool on);
  30:Pong.cpp      **** 
  31:Pong.cpp      **** 
  32:Pong.cpp      **** #define HEIGHT 128
  33:Pong.cpp      **** #define WIDTH 64
  34:Pong.cpp      **** /* OLED PINS */
  35:Pong.cpp      **** 
  36:Pong.cpp      **** /* DIGITAL INPUT PINS */
  37:Pong.cpp      **** #define BUTTON_1_PIN    D25 // pin 32
  38:Pong.cpp      **** #define BUTTON_2_PIN    D26 // pin 33
  39:Pong.cpp      **** #define ENC_A_PIN       D27 // pin 34
  40:Pong.cpp      **** #define ENC_B_PIN       D28 // pin 35
  41:Pong.cpp      **** #define ENC_BUTTON_PIN  D29 // pin 36
  42:Pong.cpp      **** /* ANALOG INPUT PINS */
ARM GAS  /var/folders/g0/l1whnkgn26zgpvrkcv2dxrg40000gn/T//ccwTptqb.s 			page 12


  43:Pong.cpp      **** #define JOY_X_PIN       A0//A0
  44:Pong.cpp      **** #define JOY_Y_PIN       A1//A1
  45:Pong.cpp      **** 
  46:Pong.cpp      **** #define BUTTON_UPDATE_RATE  10000.0f
  47:Pong.cpp      **** #define ENCODER_UPDATE_RATE 1000.0f       // in 
  48:Pong.cpp      **** #define POT_UPDATE_RATE     0.0005f     // in seconds
  49:Pong.cpp      **** #define SAMPLE_RATE         48000.0f    // in Hz
  50:Pong.cpp      **** 
  51:Pong.cpp      **** bool    right = 0, 
  52:Pong.cpp      ****         left = 0, 
  53:Pong.cpp      ****         up = 0, 
  54:Pong.cpp      ****         down = 0;
  55:Pong.cpp      **** 
  56:Pong.cpp      **** int     joyReadX = 0, //change these to float, and ADC read will be in float
  57:Pong.cpp      ****         joyReadY = 0;
  58:Pong.cpp      **** 
  59:Pong.cpp      **** int     encoderVal = 0;
  60:Pong.cpp      **** 
  61:Pong.cpp      **** 
  62:Pong.cpp      **** 
  63:Pong.cpp      **** Switch          button1,
  64:Pong.cpp      ****                 button2;
  65:Pong.cpp      **** Parameter       xPos, 
  66:Pong.cpp      ****                 yPos;
  67:Pong.cpp      **** AnalogControl   pot1, 
  68:Pong.cpp      ****                 pot2;
  69:Pong.cpp      **** 
  70:Pong.cpp      **** 
  71:Pong.cpp      **** //variables we will want
  72:Pong.cpp      **** 
  73:Pong.cpp      **** 
  74:Pong.cpp      **** // Define the PINS you're goint to use on your Arduino Nano
  75:Pong.cpp      **** int controller1 = 2;               // ANALOG 2
  76:Pong.cpp      **** int controller2 = 3;               // ANALOG 3
  77:Pong.cpp      **** int ledPin = 4;                    // DIGITAL 4
  78:Pong.cpp      **** int btnPin = 5;                    // DIGITAL 5
  79:Pong.cpp      **** 
  80:Pong.cpp      **** // Define variables
  81:Pong.cpp      **** int buttonState = 0;               // HIGH = Pressed
  82:Pong.cpp      **** int gameState = 0;                 // 0 = Home, 1 = Game, 2 = End
  83:Pong.cpp      **** 
  84:Pong.cpp      **** int controllerValue1 = 0;          // variable to store the value coming from the potentiometer
  85:Pong.cpp      **** int controllerValue2 = 0;          // variable to store the value coming from the potentiometer
  86:Pong.cpp      **** 
  87:Pong.cpp      **** int paddlePositionPlayer1 = 0;
  88:Pong.cpp      **** int paddlePositionPlayer2 = 0;  
  89:Pong.cpp      **** 
  90:Pong.cpp      **** int scorePlayer1 = 0;    
  91:Pong.cpp      **** int scorePlayer2 = 0;
  92:Pong.cpp      **** 
  93:Pong.cpp      **** int ballX = 128/2;      
  94:Pong.cpp      **** int ballY = 32/2;
  95:Pong.cpp      **** int ballSpeedX = 4;
  96:Pong.cpp      **** int ballSpeedY = 2;
  97:Pong.cpp      **** 
  98:Pong.cpp      **** #define OLED_RESET 4
  99:Pong.cpp      **** 
ARM GAS  /var/folders/g0/l1whnkgn26zgpvrkcv2dxrg40000gn/T//ccwTptqb.s 			page 13


 100:Pong.cpp      **** //joyReadX, joyReadY,
 101:Pong.cpp      **** 
 102:Pong.cpp      **** 
 103:Pong.cpp      ****  
 104:Pong.cpp      **** 
 105:Pong.cpp      **** //void setup() {
 106:Pong.cpp      ****  // pinMode(ledPin, OUTPUT);
 107:Pong.cpp      ****   //pinMode(btnPin, INPUT);
 108:Pong.cpp      ****   
 109:Pong.cpp      ****   //Serial.begin(9600);
 110:Pong.cpp      ****  //SWITCHCAPVCC, 0x3C);  // initialize with the I2C addr 0x3C (for the 128x64)
 111:Pong.cpp      ****   //display.clearDisplay();
 112:Pong.cpp      **** 
 113:Pong.cpp      ****   //digitalWrite(ledPin, HIGH);                 // Status led on...
 114:Pong.cpp      **** //}
 115:Pong.cpp      **** //NOTE ALL THE CHANGES FOR DAISY
 116:Pong.cpp      **** 
 117:Pong.cpp      **** void AudioCallback(AudioHandle::InputBuffer in, AudioHandle::OutputBuffer out, size_t size)
 118:Pong.cpp      **** {
 155              		.loc 1 118 1 is_stmt 1 view -0
 156              		.cfi_startproc
 157              		@ args = 0, pretend = 0, frame = 0
 158              		@ frame_needed = 0, uses_anonymous_args = 0
 159              		@ link register save eliminated.
 119:Pong.cpp      **** 	for (size_t i = 0; i < size; i++)
 160              		.loc 1 119 2 view .LVU19
 161              	.LBB585:
 162              		.loc 1 119 23 discriminator 1 view .LVU20
 163 0000 9AB1     		cbz	r2, .L14
 164 0002 0368     		ldr	r3, [r0]
 165 0004 4068     		ldr	r0, [r0, #4]
 166              	.LVL5:
 167              		.loc 1 119 23 is_stmt 0 discriminator 1 view .LVU21
 168 0006 03EB8202 		add	r2, r3, r2, lsl #2
 169              	.LVL6:
 170              		.loc 1 119 23 discriminator 1 view .LVU22
 171              	.LBE585:
 118:Pong.cpp      **** 	for (size_t i = 0; i < size; i++)
 172              		.loc 1 118 1 view .LVU23
 173 000a 10B4     		push	{r4}
 174              		.cfi_def_cfa_offset 4
 175              		.cfi_offset 4, -4
 176 000c 0C68     		ldr	r4, [r1]
 177 000e 4968     		ldr	r1, [r1, #4]
 178              	.LVL7:
 179              	.L8:
 180              	.LBB586:
 120:Pong.cpp      **** 	{
 121:Pong.cpp      **** 		out[0][i] = in[0][i];
 181              		.loc 1 121 3 is_stmt 1 view .LVU24
 182              		.loc 1 121 22 is_stmt 0 view .LVU25
 183 0010 53F804CB 		ldr	ip, [r3], #4	@ float
 184              		.loc 1 121 13 view .LVU26
 185 0014 44F804CB 		str	ip, [r4], #4	@ float
 122:Pong.cpp      **** 		out[1][i] = in[1][i];
 186              		.loc 1 122 3 is_stmt 1 view .LVU27
 119:Pong.cpp      **** 	{
ARM GAS  /var/folders/g0/l1whnkgn26zgpvrkcv2dxrg40000gn/T//ccwTptqb.s 			page 14


 187              		.loc 1 119 23 is_stmt 0 discriminator 1 view .LVU28
 188 0018 9342     		cmp	r3, r2
 189              		.loc 1 122 22 view .LVU29
 190 001a 50F804CB 		ldr	ip, [r0], #4	@ float
 191              		.loc 1 122 13 view .LVU30
 192 001e 41F804CB 		str	ip, [r1], #4	@ float
 119:Pong.cpp      **** 	{
 193              		.loc 1 119 2 is_stmt 1 discriminator 3 view .LVU31
 119:Pong.cpp      **** 	{
 194              		.loc 1 119 23 discriminator 1 view .LVU32
 195 0022 F5D1     		bne	.L8
 196              	.LBE586:
 123:Pong.cpp      **** 	}
 124:Pong.cpp      **** }
 197              		.loc 1 124 1 is_stmt 0 view .LVU33
 198 0024 5DF8044B 		ldr	r4, [sp], #4
 199              		.cfi_restore 4
 200              		.cfi_def_cfa_offset 0
 201 0028 7047     		bx	lr
 202              	.LVL8:
 203              	.L14:
 204              		.loc 1 124 1 view .LVU34
 205 002a 7047     		bx	lr
 206              		.cfi_endproc
 207              	.LFE4842:
 209              		.section	.text._ZN5daisy11OledDisplayINS_13SSD130xDriverILj128ELj64ENS_19SSD130xI2CTransportEEEE4F
 210              		.align	1
 211              		.p2align 2,,3
 212              		.weak	_ZN5daisy11OledDisplayINS_13SSD130xDriverILj128ELj64ENS_19SSD130xI2CTransportEEEE4FillEb
 213              		.syntax unified
 214              		.thumb
 215              		.thumb_func
 217              	_ZN5daisy11OledDisplayINS_13SSD130xDriverILj128ELj64ENS_19SSD130xI2CTransportEEEE4FillEb:
 218              	.LVL9:
 219              	.LFB5169:
 220              		.file 10 "../../libDaisy//src/hid/disp/oled_display.h"
   1:../../libDaisy//src/hid/disp/oled_display.h **** #pragma once
   2:../../libDaisy//src/hid/disp/oled_display.h **** #ifndef DSY_OLED_DISPLAY_H
   3:../../libDaisy//src/hid/disp/oled_display.h **** #define DSY_OLED_DISPLAY_H /**< Macro */
   4:../../libDaisy//src/hid/disp/oled_display.h **** 
   5:../../libDaisy//src/hid/disp/oled_display.h **** #include "display.h"
   6:../../libDaisy//src/hid/disp/oled_display.h **** 
   7:../../libDaisy//src/hid/disp/oled_display.h **** namespace daisy
   8:../../libDaisy//src/hid/disp/oled_display.h **** {
   9:../../libDaisy//src/hid/disp/oled_display.h **** /** 
  10:../../libDaisy//src/hid/disp/oled_display.h ****  * This class is for drawing to a monochrome OLED display. 
  11:../../libDaisy//src/hid/disp/oled_display.h ****  * @ingroup device
  12:../../libDaisy//src/hid/disp/oled_display.h **** */
  13:../../libDaisy//src/hid/disp/oled_display.h **** template <typename DisplayDriver>
  14:../../libDaisy//src/hid/disp/oled_display.h **** class OledDisplay : public OneBitGraphicsDisplayImpl<OledDisplay<DisplayDriver>>
  15:../../libDaisy//src/hid/disp/oled_display.h **** {
  16:../../libDaisy//src/hid/disp/oled_display.h ****   public:
  17:../../libDaisy//src/hid/disp/oled_display.h ****     OledDisplay() {}
  18:../../libDaisy//src/hid/disp/oled_display.h ****     virtual ~OledDisplay() {}
  19:../../libDaisy//src/hid/disp/oled_display.h **** 
  20:../../libDaisy//src/hid/disp/oled_display.h ****     struct Config
  21:../../libDaisy//src/hid/disp/oled_display.h ****     {
ARM GAS  /var/folders/g0/l1whnkgn26zgpvrkcv2dxrg40000gn/T//ccwTptqb.s 			page 15


  22:../../libDaisy//src/hid/disp/oled_display.h ****         typename DisplayDriver::Config driver_config;
  23:../../libDaisy//src/hid/disp/oled_display.h ****     };
  24:../../libDaisy//src/hid/disp/oled_display.h **** 
  25:../../libDaisy//src/hid/disp/oled_display.h ****     void Init(Config config) { driver_.Init(config.driver_config); }
  26:../../libDaisy//src/hid/disp/oled_display.h **** 
  27:../../libDaisy//src/hid/disp/oled_display.h ****     uint16_t Height() const override { return driver_.Height(); }
  28:../../libDaisy//src/hid/disp/oled_display.h ****     uint16_t Width() const override { return driver_.Width(); }
  29:../../libDaisy//src/hid/disp/oled_display.h **** 
  30:../../libDaisy//src/hid/disp/oled_display.h ****     /** 
  31:../../libDaisy//src/hid/disp/oled_display.h ****     Fills the entire display with either on/off.
  32:../../libDaisy//src/hid/disp/oled_display.h ****     \param on Sets on or off.
  33:../../libDaisy//src/hid/disp/oled_display.h ****     */
  34:../../libDaisy//src/hid/disp/oled_display.h ****     void Fill(bool on) override { driver_.Fill(on); }
 221              		.loc 10 34 10 is_stmt 1 view -0
 222              		.cfi_startproc
 223              		@ args = 0, pretend = 0, frame = 0
 224              		@ frame_needed = 0, uses_anonymous_args = 0
 225              		@ link register save eliminated.
 226              	.LBB587:
 227              	.LBI587:
 228              		.file 11 "../../libDaisy//src/dev/oled_ssd130x.h"
   1:../../libDaisy//src/dev/oled_ssd130x.h **** #pragma once
   2:../../libDaisy//src/dev/oled_ssd130x.h **** #ifndef SA_OLED_SSD130X_H
   3:../../libDaisy//src/dev/oled_ssd130x.h **** #define SA_OLED_SSD130X_H /**< & */
   4:../../libDaisy//src/dev/oled_ssd130x.h **** 
   5:../../libDaisy//src/dev/oled_ssd130x.h **** #include "per/i2c.h"
   6:../../libDaisy//src/dev/oled_ssd130x.h **** #include "per/spi.h"
   7:../../libDaisy//src/dev/oled_ssd130x.h **** #include "per/gpio.h"
   8:../../libDaisy//src/dev/oled_ssd130x.h **** #include "sys/system.h"
   9:../../libDaisy//src/dev/oled_ssd130x.h **** 
  10:../../libDaisy//src/dev/oled_ssd130x.h **** namespace daisy
  11:../../libDaisy//src/dev/oled_ssd130x.h **** {
  12:../../libDaisy//src/dev/oled_ssd130x.h **** /**
  13:../../libDaisy//src/dev/oled_ssd130x.h ****  * I2C Transport for SSD1306 / SSD1309 OLED display devices
  14:../../libDaisy//src/dev/oled_ssd130x.h ****  */
  15:../../libDaisy//src/dev/oled_ssd130x.h **** class SSD130xI2CTransport
  16:../../libDaisy//src/dev/oled_ssd130x.h **** {
  17:../../libDaisy//src/dev/oled_ssd130x.h ****   public:
  18:../../libDaisy//src/dev/oled_ssd130x.h ****     struct Config
  19:../../libDaisy//src/dev/oled_ssd130x.h ****     {
  20:../../libDaisy//src/dev/oled_ssd130x.h ****         Config()
  21:../../libDaisy//src/dev/oled_ssd130x.h ****         {
  22:../../libDaisy//src/dev/oled_ssd130x.h ****             // Intialize using defaults
  23:../../libDaisy//src/dev/oled_ssd130x.h ****             Defaults();
  24:../../libDaisy//src/dev/oled_ssd130x.h ****         }
  25:../../libDaisy//src/dev/oled_ssd130x.h ****         I2CHandle::Config i2c_config;
  26:../../libDaisy//src/dev/oled_ssd130x.h ****         uint8_t           i2c_address;
  27:../../libDaisy//src/dev/oled_ssd130x.h ****         void              Defaults()
  28:../../libDaisy//src/dev/oled_ssd130x.h ****         {
  29:../../libDaisy//src/dev/oled_ssd130x.h ****             i2c_config.periph         = I2CHandle::Config::Peripheral::I2C_1;
  30:../../libDaisy//src/dev/oled_ssd130x.h ****             i2c_config.speed          = I2CHandle::Config::Speed::I2C_1MHZ;
  31:../../libDaisy//src/dev/oled_ssd130x.h ****             i2c_config.mode           = I2CHandle::Config::Mode::I2C_MASTER;
  32:../../libDaisy//src/dev/oled_ssd130x.h ****             i2c_config.pin_config.scl = {DSY_GPIOB, 8};
  33:../../libDaisy//src/dev/oled_ssd130x.h ****             i2c_config.pin_config.sda = {DSY_GPIOB, 9};
  34:../../libDaisy//src/dev/oled_ssd130x.h ****             i2c_address               = 0x3C;
  35:../../libDaisy//src/dev/oled_ssd130x.h ****         }
  36:../../libDaisy//src/dev/oled_ssd130x.h ****     };
ARM GAS  /var/folders/g0/l1whnkgn26zgpvrkcv2dxrg40000gn/T//ccwTptqb.s 			page 16


  37:../../libDaisy//src/dev/oled_ssd130x.h ****     void Init(const Config& config)
  38:../../libDaisy//src/dev/oled_ssd130x.h ****     {
  39:../../libDaisy//src/dev/oled_ssd130x.h ****         i2c_address_ = config.i2c_address;
  40:../../libDaisy//src/dev/oled_ssd130x.h ****         i2c_.Init(config.i2c_config);
  41:../../libDaisy//src/dev/oled_ssd130x.h ****     };
  42:../../libDaisy//src/dev/oled_ssd130x.h ****     void SendCommand(uint8_t cmd)
  43:../../libDaisy//src/dev/oled_ssd130x.h ****     {
  44:../../libDaisy//src/dev/oled_ssd130x.h ****         uint8_t buf[2] = {0X00, cmd};
  45:../../libDaisy//src/dev/oled_ssd130x.h ****         i2c_.TransmitBlocking(i2c_address_, buf, 2, 1000);
  46:../../libDaisy//src/dev/oled_ssd130x.h ****     };
  47:../../libDaisy//src/dev/oled_ssd130x.h **** 
  48:../../libDaisy//src/dev/oled_ssd130x.h ****     void SendData(uint8_t* buff, size_t size)
  49:../../libDaisy//src/dev/oled_ssd130x.h ****     {
  50:../../libDaisy//src/dev/oled_ssd130x.h ****         for(size_t i = 0; i < size; i++)
  51:../../libDaisy//src/dev/oled_ssd130x.h ****         {
  52:../../libDaisy//src/dev/oled_ssd130x.h ****             uint8_t buf[2] = {0X40, buff[i]};
  53:../../libDaisy//src/dev/oled_ssd130x.h ****             i2c_.TransmitBlocking(i2c_address_, buf, 2, 1000);
  54:../../libDaisy//src/dev/oled_ssd130x.h ****         }
  55:../../libDaisy//src/dev/oled_ssd130x.h ****     };
  56:../../libDaisy//src/dev/oled_ssd130x.h **** 
  57:../../libDaisy//src/dev/oled_ssd130x.h ****   private:
  58:../../libDaisy//src/dev/oled_ssd130x.h ****     daisy::I2CHandle i2c_;
  59:../../libDaisy//src/dev/oled_ssd130x.h ****     uint8_t          i2c_address_;
  60:../../libDaisy//src/dev/oled_ssd130x.h **** };
  61:../../libDaisy//src/dev/oled_ssd130x.h **** 
  62:../../libDaisy//src/dev/oled_ssd130x.h **** /**
  63:../../libDaisy//src/dev/oled_ssd130x.h ****  * 4 Wire SPI Transport for SSD1306 / SSD1309 OLED display devices
  64:../../libDaisy//src/dev/oled_ssd130x.h ****  */
  65:../../libDaisy//src/dev/oled_ssd130x.h **** class SSD130x4WireSpiTransport
  66:../../libDaisy//src/dev/oled_ssd130x.h **** {
  67:../../libDaisy//src/dev/oled_ssd130x.h ****   public:
  68:../../libDaisy//src/dev/oled_ssd130x.h ****     struct Config
  69:../../libDaisy//src/dev/oled_ssd130x.h ****     {
  70:../../libDaisy//src/dev/oled_ssd130x.h ****         Config()
  71:../../libDaisy//src/dev/oled_ssd130x.h ****         {
  72:../../libDaisy//src/dev/oled_ssd130x.h ****             // Initialize using defaults
  73:../../libDaisy//src/dev/oled_ssd130x.h ****             Defaults();
  74:../../libDaisy//src/dev/oled_ssd130x.h ****         }
  75:../../libDaisy//src/dev/oled_ssd130x.h ****         SpiHandle::Config spi_config;
  76:../../libDaisy//src/dev/oled_ssd130x.h ****         struct
  77:../../libDaisy//src/dev/oled_ssd130x.h ****         {
  78:../../libDaisy//src/dev/oled_ssd130x.h ****             dsy_gpio_pin dc;    /**< & */
  79:../../libDaisy//src/dev/oled_ssd130x.h ****             dsy_gpio_pin reset; /**< & */
  80:../../libDaisy//src/dev/oled_ssd130x.h ****         } pin_config;
  81:../../libDaisy//src/dev/oled_ssd130x.h ****         void Defaults()
  82:../../libDaisy//src/dev/oled_ssd130x.h ****         {
  83:../../libDaisy//src/dev/oled_ssd130x.h ****             // SPI peripheral config
  84:../../libDaisy//src/dev/oled_ssd130x.h ****             spi_config.periph = SpiHandle::Config::Peripheral::SPI_1;
  85:../../libDaisy//src/dev/oled_ssd130x.h ****             spi_config.mode   = SpiHandle::Config::Mode::MASTER;
  86:../../libDaisy//src/dev/oled_ssd130x.h ****             spi_config.direction
  87:../../libDaisy//src/dev/oled_ssd130x.h ****                 = SpiHandle::Config::Direction::TWO_LINES_TX_ONLY;
  88:../../libDaisy//src/dev/oled_ssd130x.h ****             spi_config.datasize       = 8;
  89:../../libDaisy//src/dev/oled_ssd130x.h ****             spi_config.clock_polarity = SpiHandle::Config::ClockPolarity::LOW;
  90:../../libDaisy//src/dev/oled_ssd130x.h ****             spi_config.clock_phase    = SpiHandle::Config::ClockPhase::ONE_EDGE;
  91:../../libDaisy//src/dev/oled_ssd130x.h ****             spi_config.nss            = SpiHandle::Config::NSS::HARD_OUTPUT;
  92:../../libDaisy//src/dev/oled_ssd130x.h ****             spi_config.baud_prescaler = SpiHandle::Config::BaudPrescaler::PS_8;
  93:../../libDaisy//src/dev/oled_ssd130x.h ****             // SPI pin config
ARM GAS  /var/folders/g0/l1whnkgn26zgpvrkcv2dxrg40000gn/T//ccwTptqb.s 			page 17


  94:../../libDaisy//src/dev/oled_ssd130x.h ****             spi_config.pin_config.sclk = {DSY_GPIOG, 11};
  95:../../libDaisy//src/dev/oled_ssd130x.h ****             spi_config.pin_config.miso = {DSY_GPIOX, 0};
  96:../../libDaisy//src/dev/oled_ssd130x.h ****             spi_config.pin_config.mosi = {DSY_GPIOB, 5};
  97:../../libDaisy//src/dev/oled_ssd130x.h ****             spi_config.pin_config.nss  = {DSY_GPIOG, 10};
  98:../../libDaisy//src/dev/oled_ssd130x.h ****             // SSD130x control pin config
  99:../../libDaisy//src/dev/oled_ssd130x.h ****             pin_config.dc    = {DSY_GPIOB, 4};
 100:../../libDaisy//src/dev/oled_ssd130x.h ****             pin_config.reset = {DSY_GPIOB, 15};
 101:../../libDaisy//src/dev/oled_ssd130x.h ****         }
 102:../../libDaisy//src/dev/oled_ssd130x.h ****     };
 103:../../libDaisy//src/dev/oled_ssd130x.h ****     void Init(const Config& config)
 104:../../libDaisy//src/dev/oled_ssd130x.h ****     {
 105:../../libDaisy//src/dev/oled_ssd130x.h ****         // Initialize both GPIO
 106:../../libDaisy//src/dev/oled_ssd130x.h ****         pin_dc_.mode = DSY_GPIO_MODE_OUTPUT_PP;
 107:../../libDaisy//src/dev/oled_ssd130x.h ****         pin_dc_.pin  = config.pin_config.dc;
 108:../../libDaisy//src/dev/oled_ssd130x.h ****         dsy_gpio_init(&pin_dc_);
 109:../../libDaisy//src/dev/oled_ssd130x.h ****         pin_reset_.mode = DSY_GPIO_MODE_OUTPUT_PP;
 110:../../libDaisy//src/dev/oled_ssd130x.h ****         pin_reset_.pin  = config.pin_config.reset;
 111:../../libDaisy//src/dev/oled_ssd130x.h ****         dsy_gpio_init(&pin_reset_);
 112:../../libDaisy//src/dev/oled_ssd130x.h **** 
 113:../../libDaisy//src/dev/oled_ssd130x.h ****         // Initialize SPI
 114:../../libDaisy//src/dev/oled_ssd130x.h ****         spi_.Init(config.spi_config);
 115:../../libDaisy//src/dev/oled_ssd130x.h **** 
 116:../../libDaisy//src/dev/oled_ssd130x.h ****         // Reset and Configure OLED.
 117:../../libDaisy//src/dev/oled_ssd130x.h ****         dsy_gpio_write(&pin_reset_, 0);
 118:../../libDaisy//src/dev/oled_ssd130x.h ****         System::Delay(10);
 119:../../libDaisy//src/dev/oled_ssd130x.h ****         dsy_gpio_write(&pin_reset_, 1);
 120:../../libDaisy//src/dev/oled_ssd130x.h ****         System::Delay(10);
 121:../../libDaisy//src/dev/oled_ssd130x.h ****     };
 122:../../libDaisy//src/dev/oled_ssd130x.h ****     void SendCommand(uint8_t cmd)
 123:../../libDaisy//src/dev/oled_ssd130x.h ****     {
 124:../../libDaisy//src/dev/oled_ssd130x.h ****         dsy_gpio_write(&pin_dc_, 0);
 125:../../libDaisy//src/dev/oled_ssd130x.h ****         spi_.BlockingTransmit(&cmd, 1);
 126:../../libDaisy//src/dev/oled_ssd130x.h ****     };
 127:../../libDaisy//src/dev/oled_ssd130x.h **** 
 128:../../libDaisy//src/dev/oled_ssd130x.h ****     void SendData(uint8_t* buff, size_t size)
 129:../../libDaisy//src/dev/oled_ssd130x.h ****     {
 130:../../libDaisy//src/dev/oled_ssd130x.h ****         dsy_gpio_write(&pin_dc_, 1);
 131:../../libDaisy//src/dev/oled_ssd130x.h ****         spi_.BlockingTransmit(buff, size);
 132:../../libDaisy//src/dev/oled_ssd130x.h ****     };
 133:../../libDaisy//src/dev/oled_ssd130x.h **** 
 134:../../libDaisy//src/dev/oled_ssd130x.h ****   private:
 135:../../libDaisy//src/dev/oled_ssd130x.h ****     SpiHandle spi_;
 136:../../libDaisy//src/dev/oled_ssd130x.h ****     dsy_gpio  pin_reset_;
 137:../../libDaisy//src/dev/oled_ssd130x.h ****     dsy_gpio  pin_dc_;
 138:../../libDaisy//src/dev/oled_ssd130x.h **** };
 139:../../libDaisy//src/dev/oled_ssd130x.h **** 
 140:../../libDaisy//src/dev/oled_ssd130x.h **** /**
 141:../../libDaisy//src/dev/oled_ssd130x.h ****  * Soft SPI Transport for SSD1306 / SSD1309 OLED display devices
 142:../../libDaisy//src/dev/oled_ssd130x.h ****  */
 143:../../libDaisy//src/dev/oled_ssd130x.h **** class SSD130x4WireSoftSpiTransport
 144:../../libDaisy//src/dev/oled_ssd130x.h **** {
 145:../../libDaisy//src/dev/oled_ssd130x.h ****   public:
 146:../../libDaisy//src/dev/oled_ssd130x.h ****     struct Config
 147:../../libDaisy//src/dev/oled_ssd130x.h ****     {
 148:../../libDaisy//src/dev/oled_ssd130x.h ****         Config()
 149:../../libDaisy//src/dev/oled_ssd130x.h ****         {
 150:../../libDaisy//src/dev/oled_ssd130x.h ****             // Initialize using defaults
ARM GAS  /var/folders/g0/l1whnkgn26zgpvrkcv2dxrg40000gn/T//ccwTptqb.s 			page 18


 151:../../libDaisy//src/dev/oled_ssd130x.h ****             Defaults();
 152:../../libDaisy//src/dev/oled_ssd130x.h ****         }
 153:../../libDaisy//src/dev/oled_ssd130x.h ****         struct
 154:../../libDaisy//src/dev/oled_ssd130x.h ****         {
 155:../../libDaisy//src/dev/oled_ssd130x.h ****             uint32_t     sclk_delay;
 156:../../libDaisy//src/dev/oled_ssd130x.h ****             dsy_gpio_pin sclk;
 157:../../libDaisy//src/dev/oled_ssd130x.h ****             dsy_gpio_pin mosi;
 158:../../libDaisy//src/dev/oled_ssd130x.h ****             dsy_gpio_pin dc;
 159:../../libDaisy//src/dev/oled_ssd130x.h ****             dsy_gpio_pin reset;
 160:../../libDaisy//src/dev/oled_ssd130x.h ****         } pin_config;
 161:../../libDaisy//src/dev/oled_ssd130x.h ****         void Defaults()
 162:../../libDaisy//src/dev/oled_ssd130x.h ****         {
 163:../../libDaisy//src/dev/oled_ssd130x.h ****             pin_config.sclk_delay = 0; // fast as possible?!
 164:../../libDaisy//src/dev/oled_ssd130x.h ****             // SPI peripheral config
 165:../../libDaisy//src/dev/oled_ssd130x.h ****             pin_config.sclk = {DSY_GPIOD, 3}; /**< D10 - SPI2 SCK  */
 166:../../libDaisy//src/dev/oled_ssd130x.h ****             pin_config.mosi = {DSY_GPIOC, 3}; /**< D9  - SPI2 MOSI */
 167:../../libDaisy//src/dev/oled_ssd130x.h ****             // SSD130x control pin config
 168:../../libDaisy//src/dev/oled_ssd130x.h ****             pin_config.dc    = {DSY_GPIOC, 11}; //D2
 169:../../libDaisy//src/dev/oled_ssd130x.h ****             pin_config.reset = {DSY_GPIOC, 10}; //D3
 170:../../libDaisy//src/dev/oled_ssd130x.h ****         }
 171:../../libDaisy//src/dev/oled_ssd130x.h ****     };
 172:../../libDaisy//src/dev/oled_ssd130x.h ****     void Init(const Config& config)
 173:../../libDaisy//src/dev/oled_ssd130x.h ****     {
 174:../../libDaisy//src/dev/oled_ssd130x.h ****         // Initialize both GPIO
 175:../../libDaisy//src/dev/oled_ssd130x.h ****         pin_sclk_.mode = DSY_GPIO_MODE_OUTPUT_PP;
 176:../../libDaisy//src/dev/oled_ssd130x.h ****         pin_sclk_.pin  = config.pin_config.sclk;
 177:../../libDaisy//src/dev/oled_ssd130x.h ****         dsy_gpio_init(&pin_sclk_);
 178:../../libDaisy//src/dev/oled_ssd130x.h ****         dsy_gpio_write(&pin_sclk_, 1); //ClockPolarity::LOW
 179:../../libDaisy//src/dev/oled_ssd130x.h ****         clk_delay      = config.pin_config.sclk_delay;
 180:../../libDaisy//src/dev/oled_ssd130x.h ****         pin_mosi_.mode = DSY_GPIO_MODE_OUTPUT_PP;
 181:../../libDaisy//src/dev/oled_ssd130x.h ****         pin_mosi_.pin  = config.pin_config.mosi;
 182:../../libDaisy//src/dev/oled_ssd130x.h ****         dsy_gpio_init(&pin_mosi_);
 183:../../libDaisy//src/dev/oled_ssd130x.h ****         dsy_gpio_write(&pin_mosi_, 0);
 184:../../libDaisy//src/dev/oled_ssd130x.h **** 
 185:../../libDaisy//src/dev/oled_ssd130x.h ****         pin_dc_.mode = DSY_GPIO_MODE_OUTPUT_PP;
 186:../../libDaisy//src/dev/oled_ssd130x.h ****         pin_dc_.pin  = config.pin_config.dc;
 187:../../libDaisy//src/dev/oled_ssd130x.h ****         dsy_gpio_init(&pin_dc_);
 188:../../libDaisy//src/dev/oled_ssd130x.h ****         pin_reset_.mode = DSY_GPIO_MODE_OUTPUT_PP;
 189:../../libDaisy//src/dev/oled_ssd130x.h ****         pin_reset_.pin  = config.pin_config.reset;
 190:../../libDaisy//src/dev/oled_ssd130x.h ****         dsy_gpio_init(&pin_reset_);
 191:../../libDaisy//src/dev/oled_ssd130x.h **** 
 192:../../libDaisy//src/dev/oled_ssd130x.h ****         // Reset and Configure OLED.
 193:../../libDaisy//src/dev/oled_ssd130x.h ****         dsy_gpio_write(&pin_reset_, 0);
 194:../../libDaisy//src/dev/oled_ssd130x.h ****         System::Delay(10);
 195:../../libDaisy//src/dev/oled_ssd130x.h ****         dsy_gpio_write(&pin_reset_, 1);
 196:../../libDaisy//src/dev/oled_ssd130x.h ****         System::Delay(10);
 197:../../libDaisy//src/dev/oled_ssd130x.h ****     };
 198:../../libDaisy//src/dev/oled_ssd130x.h ****     void SendCommand(uint8_t cmd)
 199:../../libDaisy//src/dev/oled_ssd130x.h ****     {
 200:../../libDaisy//src/dev/oled_ssd130x.h ****         dsy_gpio_write(&pin_dc_, 0);
 201:../../libDaisy//src/dev/oled_ssd130x.h ****         SoftSpiTransmit(cmd);
 202:../../libDaisy//src/dev/oled_ssd130x.h ****     };
 203:../../libDaisy//src/dev/oled_ssd130x.h **** 
 204:../../libDaisy//src/dev/oled_ssd130x.h ****     void SendData(uint8_t* buff, size_t size)
 205:../../libDaisy//src/dev/oled_ssd130x.h ****     {
 206:../../libDaisy//src/dev/oled_ssd130x.h ****         dsy_gpio_write(&pin_dc_, 1);
 207:../../libDaisy//src/dev/oled_ssd130x.h ****         for(size_t i = 0; i < size; i++)
ARM GAS  /var/folders/g0/l1whnkgn26zgpvrkcv2dxrg40000gn/T//ccwTptqb.s 			page 19


 208:../../libDaisy//src/dev/oled_ssd130x.h ****             SoftSpiTransmit(buff[i]);
 209:../../libDaisy//src/dev/oled_ssd130x.h ****     };
 210:../../libDaisy//src/dev/oled_ssd130x.h **** 
 211:../../libDaisy//src/dev/oled_ssd130x.h ****   private:
 212:../../libDaisy//src/dev/oled_ssd130x.h ****     void SoftSpiTransmit(uint8_t val)
 213:../../libDaisy//src/dev/oled_ssd130x.h ****     {
 214:../../libDaisy//src/dev/oled_ssd130x.h ****         // bit flip
 215:../../libDaisy//src/dev/oled_ssd130x.h ****         val = ((val & 0x01) << 7) | ((val & 0x02) << 5) | ((val & 0x04) << 3)
 216:../../libDaisy//src/dev/oled_ssd130x.h ****               | ((val & 0x08) << 1) | ((val & 0x10) >> 1) | ((val & 0x20) >> 3)
 217:../../libDaisy//src/dev/oled_ssd130x.h ****               | ((val & 0x40) >> 5) | ((val & 0x80) >> 7);
 218:../../libDaisy//src/dev/oled_ssd130x.h **** 
 219:../../libDaisy//src/dev/oled_ssd130x.h ****         for(uint8_t bit = 0u; bit < 8u; bit++)
 220:../../libDaisy//src/dev/oled_ssd130x.h ****         {
 221:../../libDaisy//src/dev/oled_ssd130x.h ****             dsy_gpio_write(&pin_mosi_, ((val & (1 << bit)) ? 1 : 0));
 222:../../libDaisy//src/dev/oled_ssd130x.h **** 
 223:../../libDaisy//src/dev/oled_ssd130x.h ****             System::DelayTicks(clk_delay);
 224:../../libDaisy//src/dev/oled_ssd130x.h **** 
 225:../../libDaisy//src/dev/oled_ssd130x.h ****             dsy_gpio_toggle(&pin_sclk_);
 226:../../libDaisy//src/dev/oled_ssd130x.h **** 
 227:../../libDaisy//src/dev/oled_ssd130x.h ****             System::DelayTicks(clk_delay);
 228:../../libDaisy//src/dev/oled_ssd130x.h **** 
 229:../../libDaisy//src/dev/oled_ssd130x.h ****             dsy_gpio_toggle(&pin_sclk_);
 230:../../libDaisy//src/dev/oled_ssd130x.h ****         }
 231:../../libDaisy//src/dev/oled_ssd130x.h ****     }
 232:../../libDaisy//src/dev/oled_ssd130x.h **** 
 233:../../libDaisy//src/dev/oled_ssd130x.h ****     uint32_t clk_delay;
 234:../../libDaisy//src/dev/oled_ssd130x.h ****     dsy_gpio pin_sclk_;
 235:../../libDaisy//src/dev/oled_ssd130x.h ****     dsy_gpio pin_mosi_;
 236:../../libDaisy//src/dev/oled_ssd130x.h ****     dsy_gpio pin_reset_;
 237:../../libDaisy//src/dev/oled_ssd130x.h ****     dsy_gpio pin_dc_;
 238:../../libDaisy//src/dev/oled_ssd130x.h **** };
 239:../../libDaisy//src/dev/oled_ssd130x.h **** 
 240:../../libDaisy//src/dev/oled_ssd130x.h **** 
 241:../../libDaisy//src/dev/oled_ssd130x.h **** /**
 242:../../libDaisy//src/dev/oled_ssd130x.h ****  * A driver implementation for the SSD1306/SSD1309
 243:../../libDaisy//src/dev/oled_ssd130x.h ****  */
 244:../../libDaisy//src/dev/oled_ssd130x.h **** template <size_t width, size_t height, typename Transport>
 245:../../libDaisy//src/dev/oled_ssd130x.h **** class SSD130xDriver
 246:../../libDaisy//src/dev/oled_ssd130x.h **** {
 247:../../libDaisy//src/dev/oled_ssd130x.h ****   public:
 248:../../libDaisy//src/dev/oled_ssd130x.h ****     struct Config
 249:../../libDaisy//src/dev/oled_ssd130x.h ****     {
 250:../../libDaisy//src/dev/oled_ssd130x.h ****         typename Transport::Config transport_config;
 251:../../libDaisy//src/dev/oled_ssd130x.h ****     };
 252:../../libDaisy//src/dev/oled_ssd130x.h **** 
 253:../../libDaisy//src/dev/oled_ssd130x.h ****     void Init(Config config)
 254:../../libDaisy//src/dev/oled_ssd130x.h ****     {
 255:../../libDaisy//src/dev/oled_ssd130x.h ****         transport_.Init(config.transport_config);
 256:../../libDaisy//src/dev/oled_ssd130x.h **** 
 257:../../libDaisy//src/dev/oled_ssd130x.h ****         // Init routine...
 258:../../libDaisy//src/dev/oled_ssd130x.h **** 
 259:../../libDaisy//src/dev/oled_ssd130x.h ****         // Display Off
 260:../../libDaisy//src/dev/oled_ssd130x.h ****         transport_.SendCommand(0xaE);
 261:../../libDaisy//src/dev/oled_ssd130x.h ****         // Dimension dependent commands...
 262:../../libDaisy//src/dev/oled_ssd130x.h ****         switch(height)
 263:../../libDaisy//src/dev/oled_ssd130x.h ****         {
 264:../../libDaisy//src/dev/oled_ssd130x.h ****             case 16:
ARM GAS  /var/folders/g0/l1whnkgn26zgpvrkcv2dxrg40000gn/T//ccwTptqb.s 			page 20


 265:../../libDaisy//src/dev/oled_ssd130x.h ****                 // Display Clock Divide Ratio
 266:../../libDaisy//src/dev/oled_ssd130x.h ****                 transport_.SendCommand(0xD5);
 267:../../libDaisy//src/dev/oled_ssd130x.h ****                 transport_.SendCommand(0x60);
 268:../../libDaisy//src/dev/oled_ssd130x.h ****                 // Multiplex Ratio
 269:../../libDaisy//src/dev/oled_ssd130x.h ****                 transport_.SendCommand(0xA8);
 270:../../libDaisy//src/dev/oled_ssd130x.h ****                 transport_.SendCommand(0x0F);
 271:../../libDaisy//src/dev/oled_ssd130x.h ****                 // COM Pins
 272:../../libDaisy//src/dev/oled_ssd130x.h ****                 transport_.SendCommand(0xDA);
 273:../../libDaisy//src/dev/oled_ssd130x.h ****                 transport_.SendCommand(0x02);
 274:../../libDaisy//src/dev/oled_ssd130x.h ****                 break;
 275:../../libDaisy//src/dev/oled_ssd130x.h ****             case 32:
 276:../../libDaisy//src/dev/oled_ssd130x.h ****                 // Display Clock Divide Ratio
 277:../../libDaisy//src/dev/oled_ssd130x.h ****                 transport_.SendCommand(0xD5);
 278:../../libDaisy//src/dev/oled_ssd130x.h ****                 transport_.SendCommand(0x80);
 279:../../libDaisy//src/dev/oled_ssd130x.h ****                 // Multiplex Ratio
 280:../../libDaisy//src/dev/oled_ssd130x.h ****                 transport_.SendCommand(0xA8);
 281:../../libDaisy//src/dev/oled_ssd130x.h ****                 transport_.SendCommand(0x1F);
 282:../../libDaisy//src/dev/oled_ssd130x.h ****                 // COM Pins
 283:../../libDaisy//src/dev/oled_ssd130x.h ****                 transport_.SendCommand(0xDA);
 284:../../libDaisy//src/dev/oled_ssd130x.h ****                 if(width == 64)
 285:../../libDaisy//src/dev/oled_ssd130x.h ****                 {
 286:../../libDaisy//src/dev/oled_ssd130x.h ****                     transport_.SendCommand(0x12);
 287:../../libDaisy//src/dev/oled_ssd130x.h ****                 }
 288:../../libDaisy//src/dev/oled_ssd130x.h ****                 else
 289:../../libDaisy//src/dev/oled_ssd130x.h ****                 {
 290:../../libDaisy//src/dev/oled_ssd130x.h ****                     transport_.SendCommand(0x02);
 291:../../libDaisy//src/dev/oled_ssd130x.h ****                 }
 292:../../libDaisy//src/dev/oled_ssd130x.h **** 
 293:../../libDaisy//src/dev/oled_ssd130x.h ****                 break;
 294:../../libDaisy//src/dev/oled_ssd130x.h ****             case 48:
 295:../../libDaisy//src/dev/oled_ssd130x.h ****                 // Display Clock Divide Ratio
 296:../../libDaisy//src/dev/oled_ssd130x.h ****                 transport_.SendCommand(0xD5);
 297:../../libDaisy//src/dev/oled_ssd130x.h ****                 transport_.SendCommand(0x80);
 298:../../libDaisy//src/dev/oled_ssd130x.h ****                 // Multiplex Ratio
 299:../../libDaisy//src/dev/oled_ssd130x.h ****                 transport_.SendCommand(0xA8);
 300:../../libDaisy//src/dev/oled_ssd130x.h ****                 transport_.SendCommand(0x2F);
 301:../../libDaisy//src/dev/oled_ssd130x.h ****                 // COM Pins
 302:../../libDaisy//src/dev/oled_ssd130x.h ****                 transport_.SendCommand(0xDA);
 303:../../libDaisy//src/dev/oled_ssd130x.h ****                 transport_.SendCommand(0x12);
 304:../../libDaisy//src/dev/oled_ssd130x.h ****                 break;
 305:../../libDaisy//src/dev/oled_ssd130x.h ****             default: // 128
 306:../../libDaisy//src/dev/oled_ssd130x.h ****                 // Display Clock Divide Ratio
 307:../../libDaisy//src/dev/oled_ssd130x.h ****                 transport_.SendCommand(0xD5);
 308:../../libDaisy//src/dev/oled_ssd130x.h ****                 transport_.SendCommand(0x80);
 309:../../libDaisy//src/dev/oled_ssd130x.h ****                 // Multiplex Ratio
 310:../../libDaisy//src/dev/oled_ssd130x.h ****                 transport_.SendCommand(0xA8);
 311:../../libDaisy//src/dev/oled_ssd130x.h ****                 transport_.SendCommand(0x3F);
 312:../../libDaisy//src/dev/oled_ssd130x.h ****                 // COM Pins
 313:../../libDaisy//src/dev/oled_ssd130x.h ****                 transport_.SendCommand(0xDA);
 314:../../libDaisy//src/dev/oled_ssd130x.h ****                 transport_.SendCommand(0x12);
 315:../../libDaisy//src/dev/oled_ssd130x.h ****                 break;
 316:../../libDaisy//src/dev/oled_ssd130x.h ****         }
 317:../../libDaisy//src/dev/oled_ssd130x.h **** 
 318:../../libDaisy//src/dev/oled_ssd130x.h ****         // Display Offset
 319:../../libDaisy//src/dev/oled_ssd130x.h ****         transport_.SendCommand(0xD3);
 320:../../libDaisy//src/dev/oled_ssd130x.h ****         transport_.SendCommand(0x00);
 321:../../libDaisy//src/dev/oled_ssd130x.h ****         // Start Line Address
ARM GAS  /var/folders/g0/l1whnkgn26zgpvrkcv2dxrg40000gn/T//ccwTptqb.s 			page 21


 322:../../libDaisy//src/dev/oled_ssd130x.h ****         transport_.SendCommand(0x40);
 323:../../libDaisy//src/dev/oled_ssd130x.h ****         // Normal Display
 324:../../libDaisy//src/dev/oled_ssd130x.h ****         transport_.SendCommand(0xA6);
 325:../../libDaisy//src/dev/oled_ssd130x.h ****         // All On Resume
 326:../../libDaisy//src/dev/oled_ssd130x.h ****         transport_.SendCommand(0xA4);
 327:../../libDaisy//src/dev/oled_ssd130x.h ****         // Charge Pump
 328:../../libDaisy//src/dev/oled_ssd130x.h ****         transport_.SendCommand(0x8D);
 329:../../libDaisy//src/dev/oled_ssd130x.h ****         transport_.SendCommand(0x14);
 330:../../libDaisy//src/dev/oled_ssd130x.h ****         // Set Segment Remap
 331:../../libDaisy//src/dev/oled_ssd130x.h ****         transport_.SendCommand(0xA1);
 332:../../libDaisy//src/dev/oled_ssd130x.h ****         // COM Output Scan Direction
 333:../../libDaisy//src/dev/oled_ssd130x.h ****         transport_.SendCommand(0xC8);
 334:../../libDaisy//src/dev/oled_ssd130x.h ****         // Contrast Control
 335:../../libDaisy//src/dev/oled_ssd130x.h ****         transport_.SendCommand(0x81);
 336:../../libDaisy//src/dev/oled_ssd130x.h ****         transport_.SendCommand(0x8F);
 337:../../libDaisy//src/dev/oled_ssd130x.h ****         // Pre Charge
 338:../../libDaisy//src/dev/oled_ssd130x.h ****         transport_.SendCommand(0xD9);
 339:../../libDaisy//src/dev/oled_ssd130x.h ****         transport_.SendCommand(0x25);
 340:../../libDaisy//src/dev/oled_ssd130x.h ****         // VCOM Detect
 341:../../libDaisy//src/dev/oled_ssd130x.h ****         transport_.SendCommand(0xDB);
 342:../../libDaisy//src/dev/oled_ssd130x.h ****         transport_.SendCommand(0x34);
 343:../../libDaisy//src/dev/oled_ssd130x.h **** 
 344:../../libDaisy//src/dev/oled_ssd130x.h **** 
 345:../../libDaisy//src/dev/oled_ssd130x.h ****         // Display On
 346:../../libDaisy//src/dev/oled_ssd130x.h ****         transport_.SendCommand(0xAF); //--turn on oled panel
 347:../../libDaisy//src/dev/oled_ssd130x.h ****     };
 348:../../libDaisy//src/dev/oled_ssd130x.h **** 
 349:../../libDaisy//src/dev/oled_ssd130x.h ****     size_t Width() const { return width; };
 350:../../libDaisy//src/dev/oled_ssd130x.h ****     size_t Height() const { return height; };
 351:../../libDaisy//src/dev/oled_ssd130x.h **** 
 352:../../libDaisy//src/dev/oled_ssd130x.h ****     void DrawPixel(uint_fast8_t x, uint_fast8_t y, bool on)
 353:../../libDaisy//src/dev/oled_ssd130x.h ****     {
 354:../../libDaisy//src/dev/oled_ssd130x.h ****         if(x >= width || y >= height)
 355:../../libDaisy//src/dev/oled_ssd130x.h ****             return;
 356:../../libDaisy//src/dev/oled_ssd130x.h ****         if(on)
 357:../../libDaisy//src/dev/oled_ssd130x.h ****             buffer_[x + (y / 8) * width] |= (1 << (y % 8));
 358:../../libDaisy//src/dev/oled_ssd130x.h ****         else
 359:../../libDaisy//src/dev/oled_ssd130x.h ****             buffer_[x + (y / 8) * width] &= ~(1 << (y % 8));
 360:../../libDaisy//src/dev/oled_ssd130x.h ****     }
 361:../../libDaisy//src/dev/oled_ssd130x.h **** 
 362:../../libDaisy//src/dev/oled_ssd130x.h ****     void Fill(bool on)
 229              		.loc 11 362 10 view .LVU36
 230              	.LBB588:
 363:../../libDaisy//src/dev/oled_ssd130x.h ****     {
 364:../../libDaisy//src/dev/oled_ssd130x.h ****         for(size_t i = 0; i < sizeof(buffer_); i++)
 231              		.loc 11 364 29 discriminator 1 view .LVU37
 365:../../libDaisy//src/dev/oled_ssd130x.h ****         {
 366:../../libDaisy//src/dev/oled_ssd130x.h ****             buffer_[i] = on ? 0xff : 0x00;
 232              		.loc 11 366 24 is_stmt 0 view .LVU38
 233 0000 4942     		rsbs	r1, r1, #0
 234              	.LVL10:
 235              		.loc 11 366 24 discriminator 4 view .LVU39
 236 0002 4FF48062 		mov	r2, #1024
 237 0006 1030     		adds	r0, r0, #16
 238              	.LVL11:
 239              		.loc 11 366 24 discriminator 4 view .LVU40
 240 0008 C9B2     		uxtb	r1, r1
ARM GAS  /var/folders/g0/l1whnkgn26zgpvrkcv2dxrg40000gn/T//ccwTptqb.s 			page 22


 241              	.LVL12:
 242              		.loc 11 366 24 discriminator 4 view .LVU41
 243 000a FFF7FEBF 		b	memset
 244              	.LVL13:
 245              		.loc 11 366 24 discriminator 4 view .LVU42
 246              	.LBE588:
 247              	.LBE587:
 248              		.cfi_endproc
 249              	.LFE5169:
 251 000e 00BF     		.section	.text._ZN5daisy11OledDisplayINS_13SSD130xDriverILj128ELj64ENS_19SSD130xI2CTransportEEEED2
 252              		.align	1
 253              		.p2align 2,,3
 254              		.weak	_ZN5daisy11OledDisplayINS_13SSD130xDriverILj128ELj64ENS_19SSD130xI2CTransportEEEED2Ev
 255              		.syntax unified
 256              		.thumb
 257              		.thumb_func
 259              	_ZN5daisy11OledDisplayINS_13SSD130xDriverILj128ELj64ENS_19SSD130xI2CTransportEEEED2Ev:
 260              	.LVL14:
 261              	.LFB5474:
  18:../../libDaisy//src/hid/disp/oled_display.h **** 
 262              		.loc 10 18 13 is_stmt 1 view -0
 263              		.cfi_startproc
 264              		@ args = 0, pretend = 0, frame = 0
 265              		@ frame_needed = 0, uses_anonymous_args = 0
 266              		@ link register save eliminated.
 267              	.LBB589:
 268              	.LBI589:
 269              		.file 12 "../../libDaisy//src/hid/disp/display.h"
   1:../../libDaisy//src/hid/disp/display.h **** #pragma once
   2:../../libDaisy//src/hid/disp/display.h **** #ifndef DSY_DISPLAY_H
   3:../../libDaisy//src/hid/disp/display.h **** #define DSY_DISPLAY_H /**< Macro */
   4:../../libDaisy//src/hid/disp/display.h **** #include <cmath>
   5:../../libDaisy//src/hid/disp/display.h **** #include "util/oled_fonts.h"
   6:../../libDaisy//src/hid/disp/display.h **** #include "daisy_core.h"
   7:../../libDaisy//src/hid/disp/display.h **** #include "graphics_common.h"
   8:../../libDaisy//src/hid/disp/display.h **** 
   9:../../libDaisy//src/hid/disp/display.h **** #ifndef deg2rad
  10:../../libDaisy//src/hid/disp/display.h **** #define deg2rad(deg) ((deg)*3.141592 / 180.0)
  11:../../libDaisy//src/hid/disp/display.h **** #endif
  12:../../libDaisy//src/hid/disp/display.h **** 
  13:../../libDaisy//src/hid/disp/display.h **** namespace daisy
  14:../../libDaisy//src/hid/disp/display.h **** {
  15:../../libDaisy//src/hid/disp/display.h **** /** 
  16:../../libDaisy//src/hid/disp/display.h ****  * This interface is used as a base class for all types of 1bit-per-pixel
  17:../../libDaisy//src/hid/disp/display.h ****  * graphics displays.
  18:../../libDaisy//src/hid/disp/display.h **** */
  19:../../libDaisy//src/hid/disp/display.h **** class OneBitGraphicsDisplay
  20:../../libDaisy//src/hid/disp/display.h **** {
  21:../../libDaisy//src/hid/disp/display.h ****   public:
  22:../../libDaisy//src/hid/disp/display.h ****     OneBitGraphicsDisplay() {}
  23:../../libDaisy//src/hid/disp/display.h ****     virtual ~OneBitGraphicsDisplay() {}
  24:../../libDaisy//src/hid/disp/display.h **** 
  25:../../libDaisy//src/hid/disp/display.h ****     virtual uint16_t Height() const = 0;
  26:../../libDaisy//src/hid/disp/display.h ****     virtual uint16_t Width() const  = 0;
  27:../../libDaisy//src/hid/disp/display.h **** 
  28:../../libDaisy//src/hid/disp/display.h ****     Rectangle GetBounds() const
  29:../../libDaisy//src/hid/disp/display.h ****     {
ARM GAS  /var/folders/g0/l1whnkgn26zgpvrkcv2dxrg40000gn/T//ccwTptqb.s 			page 23


  30:../../libDaisy//src/hid/disp/display.h ****         return Rectangle(int16_t(Width()), int16_t(Height()));
  31:../../libDaisy//src/hid/disp/display.h ****     }
  32:../../libDaisy//src/hid/disp/display.h **** 
  33:../../libDaisy//src/hid/disp/display.h **** 
  34:../../libDaisy//src/hid/disp/display.h ****     size_t CurrentX() { return currentX_; };
  35:../../libDaisy//src/hid/disp/display.h ****     size_t CurrentY() { return currentY_; };
  36:../../libDaisy//src/hid/disp/display.h **** 
  37:../../libDaisy//src/hid/disp/display.h ****     /** 
  38:../../libDaisy//src/hid/disp/display.h ****     Fills the entire display with either on/off.
  39:../../libDaisy//src/hid/disp/display.h ****     \param on Sets on or off.
  40:../../libDaisy//src/hid/disp/display.h ****     */
  41:../../libDaisy//src/hid/disp/display.h ****     virtual void Fill(bool on) = 0;
  42:../../libDaisy//src/hid/disp/display.h **** 
  43:../../libDaisy//src/hid/disp/display.h ****     /**
  44:../../libDaisy//src/hid/disp/display.h ****     Sets the pixel at the specified coordinate to be on/off.
  45:../../libDaisy//src/hid/disp/display.h ****     \param x   x Coordinate
  46:../../libDaisy//src/hid/disp/display.h ****     \param y   y coordinate
  47:../../libDaisy//src/hid/disp/display.h ****     \param on  on or off
  48:../../libDaisy//src/hid/disp/display.h ****     */
  49:../../libDaisy//src/hid/disp/display.h ****     virtual void DrawPixel(uint_fast8_t x, uint_fast8_t y, bool on) = 0;
  50:../../libDaisy//src/hid/disp/display.h **** 
  51:../../libDaisy//src/hid/disp/display.h ****     /**
  52:../../libDaisy//src/hid/disp/display.h ****     Draws a line from (x1, y1) to (y1, y2)
  53:../../libDaisy//src/hid/disp/display.h ****     \param x1  x Coordinate of the starting point
  54:../../libDaisy//src/hid/disp/display.h ****     \param y1  y Coordinate of the starting point
  55:../../libDaisy//src/hid/disp/display.h ****     \param x2  x Coordinate of the ending point
  56:../../libDaisy//src/hid/disp/display.h ****     \param y2  y Coordinate of the ending point
  57:../../libDaisy//src/hid/disp/display.h ****     \param on  on or off
  58:../../libDaisy//src/hid/disp/display.h ****     */
  59:../../libDaisy//src/hid/disp/display.h ****     virtual void DrawLine(uint_fast8_t x1,
  60:../../libDaisy//src/hid/disp/display.h ****                           uint_fast8_t y1,
  61:../../libDaisy//src/hid/disp/display.h ****                           uint_fast8_t x2,
  62:../../libDaisy//src/hid/disp/display.h ****                           uint_fast8_t y2,
  63:../../libDaisy//src/hid/disp/display.h ****                           bool         on)
  64:../../libDaisy//src/hid/disp/display.h ****         = 0;
  65:../../libDaisy//src/hid/disp/display.h **** 
  66:../../libDaisy//src/hid/disp/display.h ****     /**
  67:../../libDaisy//src/hid/disp/display.h ****     Draws a rectangle based on two coordinates.
  68:../../libDaisy//src/hid/disp/display.h ****     \param x1 x Coordinate of the first point
  69:../../libDaisy//src/hid/disp/display.h ****     \param y1 y Coordinate of the first point
  70:../../libDaisy//src/hid/disp/display.h ****     \param x2 x Coordinate of the second point
  71:../../libDaisy//src/hid/disp/display.h ****     \param y2 y Coordinate of the second point
  72:../../libDaisy//src/hid/disp/display.h ****     \param on on or off
  73:../../libDaisy//src/hid/disp/display.h ****     \param fill fill the rectangle or draw only the outline
  74:../../libDaisy//src/hid/disp/display.h ****     */
  75:../../libDaisy//src/hid/disp/display.h ****     virtual void DrawRect(uint_fast8_t x1,
  76:../../libDaisy//src/hid/disp/display.h ****                           uint_fast8_t y1,
  77:../../libDaisy//src/hid/disp/display.h ****                           uint_fast8_t x2,
  78:../../libDaisy//src/hid/disp/display.h ****                           uint_fast8_t y2,
  79:../../libDaisy//src/hid/disp/display.h ****                           bool         on,
  80:../../libDaisy//src/hid/disp/display.h ****                           bool         fill = false)
  81:../../libDaisy//src/hid/disp/display.h ****         = 0;
  82:../../libDaisy//src/hid/disp/display.h **** 
  83:../../libDaisy//src/hid/disp/display.h ****     /**
  84:../../libDaisy//src/hid/disp/display.h ****     Draws a rectangle.
  85:../../libDaisy//src/hid/disp/display.h ****     \param rect the rectangle
  86:../../libDaisy//src/hid/disp/display.h ****     \param on   on or off
ARM GAS  /var/folders/g0/l1whnkgn26zgpvrkcv2dxrg40000gn/T//ccwTptqb.s 			page 24


  87:../../libDaisy//src/hid/disp/display.h ****     \param fill fill the rectangle or draw only the outline
  88:../../libDaisy//src/hid/disp/display.h ****     */
  89:../../libDaisy//src/hid/disp/display.h ****     void DrawRect(const Rectangle& rect, bool on, bool fill = false)
  90:../../libDaisy//src/hid/disp/display.h ****     {
  91:../../libDaisy//src/hid/disp/display.h ****         DrawRect(rect.GetX(),
  92:../../libDaisy//src/hid/disp/display.h ****                  rect.GetY(),
  93:../../libDaisy//src/hid/disp/display.h ****                  rect.GetRight(),
  94:../../libDaisy//src/hid/disp/display.h ****                  rect.GetBottom(),
  95:../../libDaisy//src/hid/disp/display.h ****                  on,
  96:../../libDaisy//src/hid/disp/display.h ****                  fill);
  97:../../libDaisy//src/hid/disp/display.h ****     }
  98:../../libDaisy//src/hid/disp/display.h **** 
  99:../../libDaisy//src/hid/disp/display.h ****     /**
 100:../../libDaisy//src/hid/disp/display.h ****     Draws an arc around the specified coordinate
 101:../../libDaisy//src/hid/disp/display.h ****     \param x           x Coordinate of the center of the arc
 102:../../libDaisy//src/hid/disp/display.h ****     \param y           y Coordinate of the center of the arc
 103:../../libDaisy//src/hid/disp/display.h ****     \param radius      radius of the arc
 104:../../libDaisy//src/hid/disp/display.h ****     \param start_angle angle where to start the arc
 105:../../libDaisy//src/hid/disp/display.h ****     \param sweep       total angle of the arc
 106:../../libDaisy//src/hid/disp/display.h ****     \param on  on or off
 107:../../libDaisy//src/hid/disp/display.h ****     */
 108:../../libDaisy//src/hid/disp/display.h ****     virtual void DrawArc(uint_fast8_t x,
 109:../../libDaisy//src/hid/disp/display.h ****                          uint_fast8_t y,
 110:../../libDaisy//src/hid/disp/display.h ****                          uint_fast8_t radius,
 111:../../libDaisy//src/hid/disp/display.h ****                          int_fast16_t start_angle,
 112:../../libDaisy//src/hid/disp/display.h ****                          int_fast16_t sweep,
 113:../../libDaisy//src/hid/disp/display.h ****                          bool         on)
 114:../../libDaisy//src/hid/disp/display.h ****         = 0;
 115:../../libDaisy//src/hid/disp/display.h **** 
 116:../../libDaisy//src/hid/disp/display.h ****     /**
 117:../../libDaisy//src/hid/disp/display.h ****     Draws a circle around the specified coordinate
 118:../../libDaisy//src/hid/disp/display.h ****     \param x           x Coordinate of the center of the circle
 119:../../libDaisy//src/hid/disp/display.h ****     \param y           y Coordinate of the center of the circle
 120:../../libDaisy//src/hid/disp/display.h ****     \param radius      radius of the circle
 121:../../libDaisy//src/hid/disp/display.h ****     \param on  on or off
 122:../../libDaisy//src/hid/disp/display.h ****     */
 123:../../libDaisy//src/hid/disp/display.h ****     void
 124:../../libDaisy//src/hid/disp/display.h ****     DrawCircle(uint_fast8_t x, uint_fast8_t y, uint_fast8_t radius, bool on)
 125:../../libDaisy//src/hid/disp/display.h ****     {
 126:../../libDaisy//src/hid/disp/display.h ****         DrawArc(x, y, radius, 0, 360, on);
 127:../../libDaisy//src/hid/disp/display.h ****     };
 128:../../libDaisy//src/hid/disp/display.h **** 
 129:../../libDaisy//src/hid/disp/display.h ****     /** 
 130:../../libDaisy//src/hid/disp/display.h ****     Writes the character with the specific FontDef
 131:../../libDaisy//src/hid/disp/display.h ****     to the display buffer at the current Cursor position.
 132:../../libDaisy//src/hid/disp/display.h ****     \param ch character to be written
 133:../../libDaisy//src/hid/disp/display.h ****     \param font font to be written in
 134:../../libDaisy//src/hid/disp/display.h ****     \param on    on or off
 135:../../libDaisy//src/hid/disp/display.h ****     \return &
 136:../../libDaisy//src/hid/disp/display.h ****     */
 137:../../libDaisy//src/hid/disp/display.h ****     virtual char WriteChar(char ch, FontDef font, bool on) = 0;
 138:../../libDaisy//src/hid/disp/display.h **** 
 139:../../libDaisy//src/hid/disp/display.h ****     /** 
 140:../../libDaisy//src/hid/disp/display.h ****     Similar to WriteChar, except it will handle an entire String.
 141:../../libDaisy//src/hid/disp/display.h ****     Wrapping does not happen automatically, so the width
 142:../../libDaisy//src/hid/disp/display.h ****     of the string must be kept within the dimensions of the screen.
 143:../../libDaisy//src/hid/disp/display.h ****     \param str string to be written
ARM GAS  /var/folders/g0/l1whnkgn26zgpvrkcv2dxrg40000gn/T//ccwTptqb.s 			page 25


 144:../../libDaisy//src/hid/disp/display.h ****     \param font font to use
 145:../../libDaisy//src/hid/disp/display.h ****     \param on  on or off
 146:../../libDaisy//src/hid/disp/display.h ****     \return &
 147:../../libDaisy//src/hid/disp/display.h ****     */
 148:../../libDaisy//src/hid/disp/display.h ****     virtual char WriteString(const char* str, FontDef font, bool on) = 0;
 149:../../libDaisy//src/hid/disp/display.h **** 
 150:../../libDaisy//src/hid/disp/display.h ****     /** 
 151:../../libDaisy//src/hid/disp/display.h ****     Similar to WriteString but justified within a bounding box.
 152:../../libDaisy//src/hid/disp/display.h ****     \param str          string to be written
 153:../../libDaisy//src/hid/disp/display.h ****     \param font         font to use
 154:../../libDaisy//src/hid/disp/display.h ****     \param boundingBox  the bounding box to draw the text in
 155:../../libDaisy//src/hid/disp/display.h ****     \param alignment    the alignment to use
 156:../../libDaisy//src/hid/disp/display.h ****     \param on           on or off
 157:../../libDaisy//src/hid/disp/display.h ****     \return The rectangle that was drawn to
 158:../../libDaisy//src/hid/disp/display.h ****     */
 159:../../libDaisy//src/hid/disp/display.h ****     virtual Rectangle WriteStringAligned(const char*    str,
 160:../../libDaisy//src/hid/disp/display.h ****                                          const FontDef& font,
 161:../../libDaisy//src/hid/disp/display.h ****                                          Rectangle      boundingBox,
 162:../../libDaisy//src/hid/disp/display.h ****                                          Alignment      alignment,
 163:../../libDaisy//src/hid/disp/display.h ****                                          bool           on)
 164:../../libDaisy//src/hid/disp/display.h ****         = 0;
 165:../../libDaisy//src/hid/disp/display.h **** 
 166:../../libDaisy//src/hid/disp/display.h ****     /** 
 167:../../libDaisy//src/hid/disp/display.h ****     Moves the 'Cursor' position used for WriteChar, and WriteStr to the specified coordinate.
 168:../../libDaisy//src/hid/disp/display.h ****     \param x x pos
 169:../../libDaisy//src/hid/disp/display.h ****     \param y y pos
 170:../../libDaisy//src/hid/disp/display.h ****     */
 171:../../libDaisy//src/hid/disp/display.h ****     void SetCursor(uint16_t x, uint16_t y)
 172:../../libDaisy//src/hid/disp/display.h ****     {
 173:../../libDaisy//src/hid/disp/display.h ****         currentX_ = (x >= Width()) ? Width() - 1 : x;
 174:../../libDaisy//src/hid/disp/display.h ****         currentY_ = (y >= Height()) ? Height() - 1 : y;
 175:../../libDaisy//src/hid/disp/display.h ****     }
 176:../../libDaisy//src/hid/disp/display.h **** 
 177:../../libDaisy//src/hid/disp/display.h ****     /** 
 178:../../libDaisy//src/hid/disp/display.h ****     Writes the current display buffer to the OLED device using SPI or I2C depending on 
 179:../../libDaisy//src/hid/disp/display.h ****     how the object was initialized.
 180:../../libDaisy//src/hid/disp/display.h ****     */
 181:../../libDaisy//src/hid/disp/display.h ****     virtual void Update() = 0;
 182:../../libDaisy//src/hid/disp/display.h **** 
 183:../../libDaisy//src/hid/disp/display.h ****   protected:
 184:../../libDaisy//src/hid/disp/display.h ****     uint16_t currentX_;
 185:../../libDaisy//src/hid/disp/display.h ****     uint16_t currentY_;
 186:../../libDaisy//src/hid/disp/display.h **** };
 187:../../libDaisy//src/hid/disp/display.h **** 
 188:../../libDaisy//src/hid/disp/display.h **** /** This class is intended as a intermediary class for your actual implementation of the OneBitGrap
 189:../../libDaisy//src/hid/disp/display.h ****  *  interface. It uses the CRTP design pattern where the template argument is the child class. It p
 190:../../libDaisy//src/hid/disp/display.h ****  *  implementations for most of the functions, except DrawPixel(), Update() and Fill(), which you'l
 191:../../libDaisy//src/hid/disp/display.h ****  *  to provide in your child class.
 192:../../libDaisy//src/hid/disp/display.h ****  *  The main goal of this class is to provide common drawing functions without relying on massive a
 193:../../libDaisy//src/hid/disp/display.h ****  *  virtual function calls that would result in a performance loss. To achieve this, any drawing fu
 194:../../libDaisy//src/hid/disp/display.h ****  *  is implemented here and internally calls other drawing functions (e.g. DrawRect() which interna
 195:../../libDaisy//src/hid/disp/display.h ****  *  DrawPixel() and DrawLine()) makes these calls via the qualified name of these functions to expl
 196:../../libDaisy//src/hid/disp/display.h ****  *  suppress the virtual dispatch mechanism like this:
 197:../../libDaisy//src/hid/disp/display.h ****  * 
 198:../../libDaisy//src/hid/disp/display.h ****  *      ChildType::DrawPixel(...); // no virtual function call; direct call into the child class fu
 199:../../libDaisy//src/hid/disp/display.h ****  *  
 200:../../libDaisy//src/hid/disp/display.h ****  *  To create a custom OneBitGraphicsDisplay implementation, you can 
ARM GAS  /var/folders/g0/l1whnkgn26zgpvrkcv2dxrg40000gn/T//ccwTptqb.s 			page 26


 201:../../libDaisy//src/hid/disp/display.h ****  *  A) inherit from OneBitGraphicsDisplay directly and provide all the drawing functions yourself
 202:../../libDaisy//src/hid/disp/display.h ****  *  B) Inherit from OneBitGraphicsDisplayImpl and only provide DrawPixel(), Fill() and Update()
 203:../../libDaisy//src/hid/disp/display.h ****  *     like this:
 204:../../libDaisy//src/hid/disp/display.h ****  *  
 205:../../libDaisy//src/hid/disp/display.h ****  *      class MyDisplayClass : public OneBitGraphicsDisplayImpl<MyDisplayClass> 
 206:../../libDaisy//src/hid/disp/display.h ****  *      {
 207:../../libDaisy//src/hid/disp/display.h ****  *      public:
 208:../../libDaisy//src/hid/disp/display.h ****  *          void Fill() override { ... };
 209:../../libDaisy//src/hid/disp/display.h ****  *          void DrawPixel(uint_fast8_t x, uint_fast8_t y, bool on) override { ... };
 210:../../libDaisy//src/hid/disp/display.h ****  *          void Update() override { ... }
 211:../../libDaisy//src/hid/disp/display.h ****  *      };
 212:../../libDaisy//src/hid/disp/display.h ****  *  
 213:../../libDaisy//src/hid/disp/display.h ****  */
 214:../../libDaisy//src/hid/disp/display.h **** template <class ChildType>
 215:../../libDaisy//src/hid/disp/display.h **** class OneBitGraphicsDisplayImpl : public OneBitGraphicsDisplay
 216:../../libDaisy//src/hid/disp/display.h **** {
 217:../../libDaisy//src/hid/disp/display.h ****   public:
 218:../../libDaisy//src/hid/disp/display.h ****     OneBitGraphicsDisplayImpl() {}
 219:../../libDaisy//src/hid/disp/display.h ****     virtual ~OneBitGraphicsDisplayImpl() {}
 270              		.loc 12 219 13 view .LVU44
 271              	.LBB590:
 272              	.LBI590:
  23:../../libDaisy//src/hid/disp/display.h **** 
 273              		.loc 12 23 13 view .LVU45
  23:../../libDaisy//src/hid/disp/display.h **** 
 274              		.loc 12 23 13 is_stmt 0 view .LVU46
 275              	.LBE590:
 276              	.LBE589:
  18:../../libDaisy//src/hid/disp/oled_display.h **** 
 277              		.loc 10 18 29 view .LVU47
 278 0000 7047     		bx	lr
 279              		.cfi_endproc
 280              	.LFE5474:
 282              		.weak	_ZN5daisy11OledDisplayINS_13SSD130xDriverILj128ELj64ENS_19SSD130xI2CTransportEEEED1Ev
 283              		.thumb_set _ZN5daisy11OledDisplayINS_13SSD130xDriverILj128ELj64ENS_19SSD130xI2CTransportEEEED1Ev,_
 284 0002 00BF     		.section	.text._ZNK5daisy11OledDisplayINS_13SSD130xDriverILj128ELj64ENS_19SSD130xI2CTransportEEEE6
 285              		.align	1
 286              		.p2align 2,,3
 287              		.weak	_ZNK5daisy11OledDisplayINS_13SSD130xDriverILj128ELj64ENS_19SSD130xI2CTransportEEEE6HeightEv
 288              		.syntax unified
 289              		.thumb
 290              		.thumb_func
 292              	_ZNK5daisy11OledDisplayINS_13SSD130xDriverILj128ELj64ENS_19SSD130xI2CTransportEEEE6HeightEv:
 293              	.LVL15:
 294              	.LFB5477:
  27:../../libDaisy//src/hid/disp/oled_display.h ****     uint16_t Width() const override { return driver_.Width(); }
 295              		.loc 10 27 14 is_stmt 1 view -0
 296              		.cfi_startproc
 297              		@ args = 0, pretend = 0, frame = 0
 298              		@ frame_needed = 0, uses_anonymous_args = 0
 299              		@ link register save eliminated.
  27:../../libDaisy//src/hid/disp/oled_display.h ****     uint16_t Width() const override { return driver_.Width(); }
 300              		.loc 10 27 65 is_stmt 0 view .LVU49
 301 0000 4020     		movs	r0, #64
 302              	.LVL16:
  27:../../libDaisy//src/hid/disp/oled_display.h ****     uint16_t Width() const override { return driver_.Width(); }
 303              		.loc 10 27 65 view .LVU50
ARM GAS  /var/folders/g0/l1whnkgn26zgpvrkcv2dxrg40000gn/T//ccwTptqb.s 			page 27


 304 0002 7047     		bx	lr
 305              		.cfi_endproc
 306              	.LFE5477:
 308              		.section	.text._ZNK5daisy11OledDisplayINS_13SSD130xDriverILj128ELj64ENS_19SSD130xI2CTransportEEEE5
 309              		.align	1
 310              		.p2align 2,,3
 311              		.weak	_ZNK5daisy11OledDisplayINS_13SSD130xDriverILj128ELj64ENS_19SSD130xI2CTransportEEEE5WidthEv
 312              		.syntax unified
 313              		.thumb
 314              		.thumb_func
 316              	_ZNK5daisy11OledDisplayINS_13SSD130xDriverILj128ELj64ENS_19SSD130xI2CTransportEEEE5WidthEv:
 317              	.LVL17:
 318              	.LFB5478:
  28:../../libDaisy//src/hid/disp/oled_display.h **** 
 319              		.loc 10 28 14 is_stmt 1 view -0
 320              		.cfi_startproc
 321              		@ args = 0, pretend = 0, frame = 0
 322              		@ frame_needed = 0, uses_anonymous_args = 0
 323              		@ link register save eliminated.
  28:../../libDaisy//src/hid/disp/oled_display.h **** 
 324              		.loc 10 28 63 is_stmt 0 view .LVU52
 325 0000 8020     		movs	r0, #128
 326              	.LVL18:
  28:../../libDaisy//src/hid/disp/oled_display.h **** 
 327              		.loc 10 28 63 view .LVU53
 328 0002 7047     		bx	lr
 329              		.cfi_endproc
 330              	.LFE5478:
 332              		.section	.text._ZN5daisy11OledDisplayINS_13SSD130xDriverILj128ELj64ENS_19SSD130xI2CTransportEEEED0
 333              		.align	1
 334              		.p2align 2,,3
 335              		.weak	_ZN5daisy11OledDisplayINS_13SSD130xDriverILj128ELj64ENS_19SSD130xI2CTransportEEEED0Ev
 336              		.syntax unified
 337              		.thumb
 338              		.thumb_func
 340              	_ZN5daisy11OledDisplayINS_13SSD130xDriverILj128ELj64ENS_19SSD130xI2CTransportEEEED0Ev:
 341              	.LVL19:
 342              	.LFB5476:
  18:../../libDaisy//src/hid/disp/oled_display.h **** 
 343              		.loc 10 18 13 is_stmt 1 view -0
 344              		.cfi_startproc
 345              		@ args = 0, pretend = 0, frame = 0
 346              		@ frame_needed = 0, uses_anonymous_args = 0
  18:../../libDaisy//src/hid/disp/oled_display.h **** 
 347              		.loc 10 18 13 is_stmt 0 view .LVU55
 348 0000 10B5     		push	{r4, lr}
 349              		.cfi_def_cfa_offset 8
 350              		.cfi_offset 4, -8
 351              		.cfi_offset 14, -4
  18:../../libDaisy//src/hid/disp/oled_display.h **** 
 352              		.loc 10 18 13 view .LVU56
 353 0002 0446     		mov	r4, r0
 354              	.LVL20:
 355              	.LBB591:
 356              	.LBI591:
  18:../../libDaisy//src/hid/disp/oled_display.h **** 
 357              		.loc 10 18 13 is_stmt 1 view .LVU57
ARM GAS  /var/folders/g0/l1whnkgn26zgpvrkcv2dxrg40000gn/T//ccwTptqb.s 			page 28


 358              	.LBB592:
 359              	.LBI592:
 360              		.loc 12 219 13 view .LVU58
 361              	.LBB593:
 362              	.LBI593:
  23:../../libDaisy//src/hid/disp/display.h **** 
 363              		.loc 12 23 13 view .LVU59
  23:../../libDaisy//src/hid/disp/display.h **** 
 364              		.loc 12 23 13 is_stmt 0 view .LVU60
 365              	.LBE593:
 366              	.LBE592:
 367              	.LBE591:
  18:../../libDaisy//src/hid/disp/oled_display.h **** 
 368              		.loc 10 18 29 discriminator 1 view .LVU61
 369 0004 4FF48261 		mov	r1, #1040
 370 0008 FFF7FEFF 		bl	_ZdlPvj
 371              	.LVL21:
  18:../../libDaisy//src/hid/disp/oled_display.h **** 
 372              		.loc 10 18 29 view .LVU62
 373 000c 2046     		mov	r0, r4
 374 000e 10BD     		pop	{r4, pc}
  18:../../libDaisy//src/hid/disp/oled_display.h **** 
 375              		.loc 10 18 29 view .LVU63
 376              		.cfi_endproc
 377              	.LFE5476:
 379              		.section	.text._ZN5daisy25OneBitGraphicsDisplayImplINS_11OledDisplayINS_13SSD130xDriverILj128ELj64
 380              		.align	1
 381              		.p2align 2,,3
 382              		.weak	_ZN5daisy25OneBitGraphicsDisplayImplINS_11OledDisplayINS_13SSD130xDriverILj128ELj64ENS_19SSD
 383              		.syntax unified
 384              		.thumb
 385              		.thumb_func
 387              	_ZN5daisy25OneBitGraphicsDisplayImplINS_11OledDisplayINS_13SSD130xDriverILj128ELj64ENS_19SSD130xI2C
 388              	.LVL22:
 389              	.LFB5333:
 220:../../libDaisy//src/hid/disp/display.h **** 
 221:../../libDaisy//src/hid/disp/display.h ****     void DrawLine(uint_fast8_t x1,
 222:../../libDaisy//src/hid/disp/display.h ****                   uint_fast8_t y1,
 223:../../libDaisy//src/hid/disp/display.h ****                   uint_fast8_t x2,
 224:../../libDaisy//src/hid/disp/display.h ****                   uint_fast8_t y2,
 225:../../libDaisy//src/hid/disp/display.h ****                   bool         on) override
 226:../../libDaisy//src/hid/disp/display.h ****     {
 227:../../libDaisy//src/hid/disp/display.h ****         int_fast16_t deltaX = abs((int_fast16_t)x2 - (int_fast16_t)x1);
 228:../../libDaisy//src/hid/disp/display.h ****         int_fast16_t deltaY = abs((int_fast16_t)y2 - (int_fast16_t)y1);
 229:../../libDaisy//src/hid/disp/display.h ****         int_fast16_t signX  = ((x1 < x2) ? 1 : -1);
 230:../../libDaisy//src/hid/disp/display.h ****         int_fast16_t signY  = ((y1 < y2) ? 1 : -1);
 231:../../libDaisy//src/hid/disp/display.h ****         int_fast16_t error  = deltaX - deltaY;
 232:../../libDaisy//src/hid/disp/display.h ****         int_fast16_t error2;
 233:../../libDaisy//src/hid/disp/display.h **** 
 234:../../libDaisy//src/hid/disp/display.h ****         // If we write "ChildType::DrawPixel(x2, y2, on);", we end up with
 235:../../libDaisy//src/hid/disp/display.h ****         // all sorts of weird compiler errors when the Child class is a template
 236:../../libDaisy//src/hid/disp/display.h ****         // class. The only way around this is to use this very verbose syntax:
 237:../../libDaisy//src/hid/disp/display.h ****         ((ChildType*)(this))->ChildType::DrawPixel(x2, y2, on);
 238:../../libDaisy//src/hid/disp/display.h **** 
 239:../../libDaisy//src/hid/disp/display.h ****         while((x1 != x2) || (y1 != y2))
 240:../../libDaisy//src/hid/disp/display.h ****         {
 241:../../libDaisy//src/hid/disp/display.h ****             ((ChildType*)(this))->ChildType::DrawPixel(x1, y1, on);
ARM GAS  /var/folders/g0/l1whnkgn26zgpvrkcv2dxrg40000gn/T//ccwTptqb.s 			page 29


 242:../../libDaisy//src/hid/disp/display.h ****             error2 = error * 2;
 243:../../libDaisy//src/hid/disp/display.h ****             if(error2 > -deltaY)
 244:../../libDaisy//src/hid/disp/display.h ****             {
 245:../../libDaisy//src/hid/disp/display.h ****                 error -= deltaY;
 246:../../libDaisy//src/hid/disp/display.h ****                 x1 += signX;
 247:../../libDaisy//src/hid/disp/display.h ****             }
 248:../../libDaisy//src/hid/disp/display.h **** 
 249:../../libDaisy//src/hid/disp/display.h ****             if(error2 < deltaX)
 250:../../libDaisy//src/hid/disp/display.h ****             {
 251:../../libDaisy//src/hid/disp/display.h ****                 error += deltaX;
 252:../../libDaisy//src/hid/disp/display.h ****                 y1 += signY;
 253:../../libDaisy//src/hid/disp/display.h ****             }
 254:../../libDaisy//src/hid/disp/display.h ****         }
 255:../../libDaisy//src/hid/disp/display.h ****     }
 256:../../libDaisy//src/hid/disp/display.h **** 
 257:../../libDaisy//src/hid/disp/display.h ****     void DrawRect(uint_fast8_t x1,
 258:../../libDaisy//src/hid/disp/display.h ****                   uint_fast8_t y1,
 259:../../libDaisy//src/hid/disp/display.h ****                   uint_fast8_t x2,
 260:../../libDaisy//src/hid/disp/display.h ****                   uint_fast8_t y2,
 261:../../libDaisy//src/hid/disp/display.h ****                   bool         on,
 262:../../libDaisy//src/hid/disp/display.h ****                   bool         fill = false) override
 263:../../libDaisy//src/hid/disp/display.h ****     {
 264:../../libDaisy//src/hid/disp/display.h ****         if(fill)
 265:../../libDaisy//src/hid/disp/display.h ****         {
 266:../../libDaisy//src/hid/disp/display.h ****             for(uint_fast8_t x = x1; x <= x2; x++)
 267:../../libDaisy//src/hid/disp/display.h ****             {
 268:../../libDaisy//src/hid/disp/display.h ****                 for(uint_fast8_t y = y1; y <= y2; y++)
 269:../../libDaisy//src/hid/disp/display.h ****                 {
 270:../../libDaisy//src/hid/disp/display.h ****                     ((ChildType*)(this))->ChildType::DrawPixel(x, y, on);
 271:../../libDaisy//src/hid/disp/display.h ****                 }
 272:../../libDaisy//src/hid/disp/display.h ****             }
 273:../../libDaisy//src/hid/disp/display.h ****         }
 274:../../libDaisy//src/hid/disp/display.h ****         else
 275:../../libDaisy//src/hid/disp/display.h ****         {
 276:../../libDaisy//src/hid/disp/display.h ****             ((ChildType*)(this))->ChildType::DrawLine(x1, y1, x2, y1, on);
 277:../../libDaisy//src/hid/disp/display.h ****             ((ChildType*)(this))->ChildType::DrawLine(x2, y1, x2, y2, on);
 278:../../libDaisy//src/hid/disp/display.h ****             ((ChildType*)(this))->ChildType::DrawLine(x2, y2, x1, y2, on);
 279:../../libDaisy//src/hid/disp/display.h ****             ((ChildType*)(this))->ChildType::DrawLine(x1, y2, x1, y1, on);
 280:../../libDaisy//src/hid/disp/display.h ****         }
 281:../../libDaisy//src/hid/disp/display.h ****     }
 282:../../libDaisy//src/hid/disp/display.h **** 
 283:../../libDaisy//src/hid/disp/display.h ****     void DrawArc(uint_fast8_t x,
 284:../../libDaisy//src/hid/disp/display.h ****                  uint_fast8_t y,
 285:../../libDaisy//src/hid/disp/display.h ****                  uint_fast8_t radius,
 286:../../libDaisy//src/hid/disp/display.h ****                  int_fast16_t start_angle,
 287:../../libDaisy//src/hid/disp/display.h ****                  int_fast16_t sweep,
 288:../../libDaisy//src/hid/disp/display.h ****                  bool         on) override
 289:../../libDaisy//src/hid/disp/display.h ****     {
 290:../../libDaisy//src/hid/disp/display.h ****         // Values to calculate the circle
 291:../../libDaisy//src/hid/disp/display.h ****         int_fast16_t t_x, t_y, err, e2;
 292:../../libDaisy//src/hid/disp/display.h **** 
 293:../../libDaisy//src/hid/disp/display.h ****         // Temporary values to speed up comparisons
 294:../../libDaisy//src/hid/disp/display.h ****         float t_sxy, t_syx, t_sxny, t_synx;
 295:../../libDaisy//src/hid/disp/display.h ****         float t_exy, t_eyx, t_exny, t_eynx;
 296:../../libDaisy//src/hid/disp/display.h **** 
 297:../../libDaisy//src/hid/disp/display.h ****         float start_angle_rad, end_angle_rad;
 298:../../libDaisy//src/hid/disp/display.h ****         float start_x, start_y, end_x, end_y;
ARM GAS  /var/folders/g0/l1whnkgn26zgpvrkcv2dxrg40000gn/T//ccwTptqb.s 			page 30


 299:../../libDaisy//src/hid/disp/display.h **** 
 300:../../libDaisy//src/hid/disp/display.h ****         bool d1, d2, d3, d4;
 301:../../libDaisy//src/hid/disp/display.h **** 
 302:../../libDaisy//src/hid/disp/display.h ****         d1 = d2 = d3 = d4 = true;
 303:../../libDaisy//src/hid/disp/display.h **** 
 304:../../libDaisy//src/hid/disp/display.h ****         bool circle = false;
 305:../../libDaisy//src/hid/disp/display.h **** 
 306:../../libDaisy//src/hid/disp/display.h ****         if(sweep < 0)
 307:../../libDaisy//src/hid/disp/display.h ****         {
 308:../../libDaisy//src/hid/disp/display.h ****             start_angle += sweep;
 309:../../libDaisy//src/hid/disp/display.h ****             sweep = -sweep;
 310:../../libDaisy//src/hid/disp/display.h ****         }
 311:../../libDaisy//src/hid/disp/display.h **** 
 312:../../libDaisy//src/hid/disp/display.h ****         start_angle_rad = deg2rad(start_angle);
 313:../../libDaisy//src/hid/disp/display.h ****         end_angle_rad   = deg2rad(start_angle + sweep);
 314:../../libDaisy//src/hid/disp/display.h **** 
 315:../../libDaisy//src/hid/disp/display.h ****         start_x = cos(start_angle_rad) * radius;
 316:../../libDaisy//src/hid/disp/display.h ****         start_y = -sin(start_angle_rad) * radius;
 317:../../libDaisy//src/hid/disp/display.h ****         end_x   = cos(end_angle_rad) * radius;
 318:../../libDaisy//src/hid/disp/display.h ****         end_y   = -sin(end_angle_rad) * radius;
 319:../../libDaisy//src/hid/disp/display.h **** 
 320:../../libDaisy//src/hid/disp/display.h ****         // Check if start and endpoint are very near
 321:../../libDaisy//src/hid/disp/display.h ****         if((end_x - start_x) * (end_x - start_x)
 322:../../libDaisy//src/hid/disp/display.h ****                + (end_y - start_y) * (end_y - start_y)
 323:../../libDaisy//src/hid/disp/display.h ****            < 2.0f)
 324:../../libDaisy//src/hid/disp/display.h ****         {
 325:../../libDaisy//src/hid/disp/display.h ****             if(sweep > 180)
 326:../../libDaisy//src/hid/disp/display.h ****                 circle = true;
 327:../../libDaisy//src/hid/disp/display.h ****             else
 328:../../libDaisy//src/hid/disp/display.h ****                 // Nothing to draw
 329:../../libDaisy//src/hid/disp/display.h ****                 return;
 330:../../libDaisy//src/hid/disp/display.h ****         }
 331:../../libDaisy//src/hid/disp/display.h **** 
 332:../../libDaisy//src/hid/disp/display.h ****         t_x = -radius;
 333:../../libDaisy//src/hid/disp/display.h ****         t_y = 0;
 334:../../libDaisy//src/hid/disp/display.h ****         err = 2 - 2 * radius;
 335:../../libDaisy//src/hid/disp/display.h **** 
 336:../../libDaisy//src/hid/disp/display.h ****         do
 337:../../libDaisy//src/hid/disp/display.h ****         {
 338:../../libDaisy//src/hid/disp/display.h ****             if(!circle)
 339:../../libDaisy//src/hid/disp/display.h ****             {
 340:../../libDaisy//src/hid/disp/display.h ****                 t_sxy  = start_x * t_y;
 341:../../libDaisy//src/hid/disp/display.h ****                 t_syx  = start_y * t_x;
 342:../../libDaisy//src/hid/disp/display.h ****                 t_sxny = start_x * -t_y;
 343:../../libDaisy//src/hid/disp/display.h ****                 t_synx = start_y * -t_x;
 344:../../libDaisy//src/hid/disp/display.h ****                 t_exy  = end_x * t_y;
 345:../../libDaisy//src/hid/disp/display.h ****                 t_eyx  = end_y * t_x;
 346:../../libDaisy//src/hid/disp/display.h ****                 t_exny = end_x * -t_y;
 347:../../libDaisy//src/hid/disp/display.h ****                 t_eynx = end_y * -t_x;
 348:../../libDaisy//src/hid/disp/display.h **** 
 349:../../libDaisy//src/hid/disp/display.h ****                 if(sweep > 180)
 350:../../libDaisy//src/hid/disp/display.h ****                 {
 351:../../libDaisy//src/hid/disp/display.h ****                     d1 = (t_sxy - t_synx < 0 || t_exy - t_eynx > 0);
 352:../../libDaisy//src/hid/disp/display.h ****                     d2 = (t_sxy - t_syx < 0 || t_exy - t_eyx > 0);
 353:../../libDaisy//src/hid/disp/display.h ****                     d3 = (t_sxny - t_syx < 0 || t_exny - t_eyx > 0);
 354:../../libDaisy//src/hid/disp/display.h ****                     d4 = (t_sxny - t_synx < 0 || t_exny - t_eynx > 0);
 355:../../libDaisy//src/hid/disp/display.h ****                 }
ARM GAS  /var/folders/g0/l1whnkgn26zgpvrkcv2dxrg40000gn/T//ccwTptqb.s 			page 31


 356:../../libDaisy//src/hid/disp/display.h ****                 else
 357:../../libDaisy//src/hid/disp/display.h ****                 {
 358:../../libDaisy//src/hid/disp/display.h ****                     d1 = (t_sxy - t_synx < 0 && t_exy - t_eynx > 0);
 359:../../libDaisy//src/hid/disp/display.h ****                     d2 = (t_sxy - t_syx < 0 && t_exy - t_eyx > 0);
 360:../../libDaisy//src/hid/disp/display.h ****                     d3 = (t_sxny - t_syx < 0 && t_exny - t_eyx > 0);
 361:../../libDaisy//src/hid/disp/display.h ****                     d4 = (t_sxny - t_synx < 0 && t_exny - t_eynx > 0);
 362:../../libDaisy//src/hid/disp/display.h ****                 }
 363:../../libDaisy//src/hid/disp/display.h ****             }
 364:../../libDaisy//src/hid/disp/display.h **** 
 365:../../libDaisy//src/hid/disp/display.h ****             if(d1)
 366:../../libDaisy//src/hid/disp/display.h ****                 ((ChildType*)(this))
 367:../../libDaisy//src/hid/disp/display.h ****                     ->ChildType::DrawPixel(x - t_x, y + t_y, on);
 368:../../libDaisy//src/hid/disp/display.h ****             if(d2)
 369:../../libDaisy//src/hid/disp/display.h ****                 ((ChildType*)(this))
 370:../../libDaisy//src/hid/disp/display.h ****                     ->ChildType::DrawPixel(x + t_x, y + t_y, on);
 371:../../libDaisy//src/hid/disp/display.h ****             if(d3)
 372:../../libDaisy//src/hid/disp/display.h ****                 ((ChildType*)(this))
 373:../../libDaisy//src/hid/disp/display.h ****                     ->ChildType::DrawPixel(x + t_x, y - t_y, on);
 374:../../libDaisy//src/hid/disp/display.h ****             if(d4)
 375:../../libDaisy//src/hid/disp/display.h ****                 ((ChildType*)(this))
 376:../../libDaisy//src/hid/disp/display.h ****                     ->ChildType::DrawPixel(x - t_x, y - t_y, on);
 377:../../libDaisy//src/hid/disp/display.h **** 
 378:../../libDaisy//src/hid/disp/display.h ****             e2 = err;
 379:../../libDaisy//src/hid/disp/display.h ****             if(e2 <= t_y)
 380:../../libDaisy//src/hid/disp/display.h ****             {
 381:../../libDaisy//src/hid/disp/display.h ****                 t_y++;
 382:../../libDaisy//src/hid/disp/display.h ****                 err = err + (t_y * 2 + 1);
 383:../../libDaisy//src/hid/disp/display.h ****                 if(-t_x == t_y && e2 <= t_x)
 384:../../libDaisy//src/hid/disp/display.h ****                 {
 385:../../libDaisy//src/hid/disp/display.h ****                     e2 = 0;
 386:../../libDaisy//src/hid/disp/display.h ****                 }
 387:../../libDaisy//src/hid/disp/display.h ****             }
 388:../../libDaisy//src/hid/disp/display.h ****             if(e2 > t_x)
 389:../../libDaisy//src/hid/disp/display.h ****             {
 390:../../libDaisy//src/hid/disp/display.h ****                 t_x++;
 391:../../libDaisy//src/hid/disp/display.h ****                 err = err + (t_x * 2 + 1);
 392:../../libDaisy//src/hid/disp/display.h ****             }
 393:../../libDaisy//src/hid/disp/display.h ****         } while(t_x <= 0);
 394:../../libDaisy//src/hid/disp/display.h ****     }
 395:../../libDaisy//src/hid/disp/display.h **** 
 396:../../libDaisy//src/hid/disp/display.h ****     char WriteChar(char ch, FontDef font, bool on) override
 390              		.loc 12 396 10 is_stmt 1 view -0
 391              		.cfi_startproc
 392              		@ args = 4, pretend = 0, frame = 24
 393              		@ frame_needed = 0, uses_anonymous_args = 0
 394              		.loc 12 396 10 is_stmt 0 view .LVU65
 395 0000 2DE9F04F 		push	{r4, r5, r6, r7, r8, r9, r10, fp, lr}
 396              		.cfi_def_cfa_offset 36
 397              		.cfi_offset 4, -36
 398              		.cfi_offset 5, -32
 399              		.cfi_offset 6, -28
 400              		.cfi_offset 7, -24
 401              		.cfi_offset 8, -20
 402              		.cfi_offset 9, -16
 403              		.cfi_offset 10, -12
 404              		.cfi_offset 11, -8
 405              		.cfi_offset 14, -4
ARM GAS  /var/folders/g0/l1whnkgn26zgpvrkcv2dxrg40000gn/T//ccwTptqb.s 			page 32


 406 0004 87B0     		sub	sp, sp, #28
 407              		.cfi_def_cfa_offset 64
 397:../../libDaisy//src/hid/disp/display.h ****     {
 398:../../libDaisy//src/hid/disp/display.h ****         uint32_t i, b, j;
 399:../../libDaisy//src/hid/disp/display.h **** 
 400:../../libDaisy//src/hid/disp/display.h ****         // Check if character is valid
 401:../../libDaisy//src/hid/disp/display.h ****         if(ch < 32 || ch > 126)
 408              		.loc 12 401 20 view .LVU66
 409 0006 A1F12005 		sub	r5, r1, #32
 396:../../libDaisy//src/hid/disp/display.h ****     {
 410              		.loc 12 396 10 view .LVU67
 411 000a 06AC     		add	r4, sp, #24
 412 000c 9DF84070 		ldrb	r7, [sp, #64]	@ zero_extendqisi2
 413 0010 04E90C00 		stmdb	r4, {r2, r3}
 414              		.loc 12 401 9 view .LVU68
 415 0014 EBB2     		uxtb	r3, r5
 416 0016 9DF81040 		ldrb	r4, [sp, #16]	@ zero_extendqisi2
 417              	.LVL23:
 418              		.loc 12 401 9 view .LVU69
 419 001a 9DF811A0 		ldrb	r10, [sp, #17]	@ zero_extendqisi2
 420              	.LVL24:
 421              		.loc 12 401 9 view .LVU70
 422 001e 5E2B     		cmp	r3, #94
 423 0020 00F28380 		bhi	.L27
 402:../../libDaisy//src/hid/disp/display.h ****             return 0;
 403:../../libDaisy//src/hid/disp/display.h **** 
 404:../../libDaisy//src/hid/disp/display.h ****         // Check remaining space on current line
 405:../../libDaisy//src/hid/disp/display.h ****         if(Width() < (currentX_ + font.FontWidth)
 424              		.loc 12 405 17 view .LVU71
 425 0024 0368     		ldr	r3, [r0]
 426 0026 8946     		mov	r9, r1
 427 0028 674A     		ldr	r2, .L70
 428 002a 8046     		mov	r8, r0
 429 002c DB68     		ldr	r3, [r3, #12]
 430 002e 9342     		cmp	r3, r2
 431 0030 40F0A280 		bne	.L64
 432 0034 8020     		movs	r0, #128
 433              	.LVL25:
 434              	.L26:
 435              		.loc 12 405 23 discriminator 1 view .LVU72
 436 0036 B8F80430 		ldrh	r3, [r8, #4]
 437              		.loc 12 405 33 discriminator 1 view .LVU73
 438 003a 2344     		add	r3, r3, r4
 406:../../libDaisy//src/hid/disp/display.h ****            || Height() < (currentY_ + font.FontHeight))
 439              		.loc 12 406 12 view .LVU74
 440 003c 8342     		cmp	r3, r0
 441 003e 74DC     		bgt	.L27
 442              		.loc 12 406 21 discriminator 2 view .LVU75
 443 0040 D8F80030 		ldr	r3, [r8]
 444 0044 614A     		ldr	r2, .L70+4
 445 0046 9B68     		ldr	r3, [r3, #8]
 446 0048 9342     		cmp	r3, r2
 447 004a 40F09780 		bne	.L65
 448 004e 4020     		movs	r0, #64
 449              	.L28:
 450              		.loc 12 406 27 discriminator 1 view .LVU76
 451 0050 B8F80660 		ldrh	r6, [r8, #6]
ARM GAS  /var/folders/g0/l1whnkgn26zgpvrkcv2dxrg40000gn/T//ccwTptqb.s 			page 33


 452              		.loc 12 406 37 discriminator 1 view .LVU77
 453 0054 06EB0A03 		add	r3, r6, r10
 454              		.loc 12 406 12 discriminator 1 view .LVU78
 455 0058 8342     		cmp	r3, r0
 456 005a 66DC     		bgt	.L27
 457              	.LVL26:
 407:../../libDaisy//src/hid/disp/display.h ****         {
 408:../../libDaisy//src/hid/disp/display.h ****             // Not enough space on current line
 409:../../libDaisy//src/hid/disp/display.h ****             return 0;
 410:../../libDaisy//src/hid/disp/display.h ****         }
 411:../../libDaisy//src/hid/disp/display.h **** 
 412:../../libDaisy//src/hid/disp/display.h ****         // Use the font to write
 413:../../libDaisy//src/hid/disp/display.h ****         for(i = 0; i < font.FontHeight; i++)
 458              		.loc 12 413 22 is_stmt 1 discriminator 1 view .LVU79
 414:../../libDaisy//src/hid/disp/display.h ****         {
 415:../../libDaisy//src/hid/disp/display.h ****             b = font.data[(ch - 32) * font.FontHeight + i];
 416:../../libDaisy//src/hid/disp/display.h ****             for(j = 0; j < font.FontWidth; j++)
 417:../../libDaisy//src/hid/disp/display.h ****             {
 418:../../libDaisy//src/hid/disp/display.h ****                 if((b << j) & 0x8000)
 419:../../libDaisy//src/hid/disp/display.h ****                 {
 420:../../libDaisy//src/hid/disp/display.h ****                     ((ChildType*)(this))
 421:../../libDaisy//src/hid/disp/display.h ****                         ->ChildType::DrawPixel(
 422:../../libDaisy//src/hid/disp/display.h ****                             currentX_ + j, (currentY_ + i), on);
 423:../../libDaisy//src/hid/disp/display.h ****                 }
 424:../../libDaisy//src/hid/disp/display.h ****                 else
 425:../../libDaisy//src/hid/disp/display.h ****                 {
 426:../../libDaisy//src/hid/disp/display.h ****                     ((ChildType*)(this))
 427:../../libDaisy//src/hid/disp/display.h ****                         ->ChildType::DrawPixel(
 428:../../libDaisy//src/hid/disp/display.h ****                             currentX_ + j, (currentY_ + i), !on);
 429:../../libDaisy//src/hid/disp/display.h ****                 }
 430:../../libDaisy//src/hid/disp/display.h ****             }
 431:../../libDaisy//src/hid/disp/display.h ****         }
 432:../../libDaisy//src/hid/disp/display.h **** 
 433:../../libDaisy//src/hid/disp/display.h ****         // The current space is now taken
 434:../../libDaisy//src/hid/disp/display.h ****         SetCursor(currentX_ + font.FontWidth, currentY_);
 459              		.loc 12 434 19 is_stmt 0 view .LVU80
 460 005c B8F80410 		ldrh	r1, [r8, #4]
 413:../../libDaisy//src/hid/disp/display.h ****         {
 461              		.loc 12 413 22 discriminator 1 view .LVU81
 462 0060 BAF1000F 		cmp	r10, #0
 463 0064 69D0     		beq	.L33
 415:../../libDaisy//src/hid/disp/display.h ****             for(j = 0; j < font.FontWidth; j++)
 464              		.loc 12 415 37 view .LVU82
 465 0066 0AFB05F5 		mul	r5, r10, r5
 466 006a 6FF00043 		mvn	r3, #-2147483648
 415:../../libDaisy//src/hid/disp/display.h ****             for(j = 0; j < font.FontWidth; j++)
 467              		.loc 12 415 22 view .LVU83
 468 006e 059A     		ldr	r2, [sp, #20]
 469 0070 B646     		mov	lr, r6
 470 0072 2B44     		add	r3, r3, r5
 471 0074 AA44     		add	r10, r10, r5
 472              	.LVL27:
 415:../../libDaisy//src/hid/disp/display.h ****             for(j = 0; j < font.FontWidth; j++)
 473              		.loc 12 415 22 view .LVU84
 474 0076 02EB4303 		add	r3, r2, r3, lsl #1
 475 007a 023A     		subs	r2, r2, #2
 415:../../libDaisy//src/hid/disp/display.h ****             for(j = 0; j < font.FontWidth; j++)
ARM GAS  /var/folders/g0/l1whnkgn26zgpvrkcv2dxrg40000gn/T//ccwTptqb.s 			page 34


 476              		.loc 12 415 15 view .LVU85
 477 007c 5D88     		ldrh	r5, [r3, #2]
 478 007e 02EB4A0B 		add	fp, r2, r10, lsl #1
 479              	.LVL28:
 416:../../libDaisy//src/hid/disp/display.h ****             {
 480              		.loc 12 416 26 is_stmt 1 discriminator 1 view .LVU86
 415:../../libDaisy//src/hid/disp/display.h ****             for(j = 0; j < font.FontWidth; j++)
 481              		.loc 12 415 58 is_stmt 0 view .LVU87
 482 0082 03F1020A 		add	r10, r3, #2
 416:../../libDaisy//src/hid/disp/display.h ****             {
 483              		.loc 12 416 26 discriminator 1 view .LVU88
 484 0086 002C     		cmp	r4, #0
 485 0088 53D0     		beq	.L34
 486 008a 01F11003 		add	r3, r1, #16
 487 008e 5A46     		mov	r2, fp
 488 0090 CDF80C90 		str	r9, [sp, #12]
 489 0094 CDE90161 		strd	r6, r1, [sp, #4]
 490              	.LVL29:
 491              	.L32:
 492              	.LBB624:
 493              	.LBB625:
 494              	.LBB626:
 495              	.LBB627:
 496              	.LBB628:
 359:../../libDaisy//src/dev/oled_ssd130x.h ****     }
 497              		.loc 11 359 55 view .LVU89
 498 0098 0EF00701 		and	r1, lr, #7
 359:../../libDaisy//src/dev/oled_ssd130x.h ****     }
 499              		.loc 11 359 49 view .LVU90
 500 009c 4FF00109 		mov	r9, #1
 359:../../libDaisy//src/dev/oled_ssd130x.h ****     }
 501              		.loc 11 359 28 view .LVU91
 502 00a0 4FEADE06 		lsr	r6, lr, #3
 503 00a4 6FF00F0C 		mvn	ip, #15
 359:../../libDaisy//src/dev/oled_ssd130x.h ****     }
 504              		.loc 11 359 49 view .LVU92
 505 00a8 09FA01F9 		lsl	r9, r9, r1
 506              	.LBE628:
 507              	.LBE627:
 508              	.LBE626:
 509              	.LBE625:
 510              	.LBE624:
 416:../../libDaisy//src/hid/disp/display.h ****             {
 511              		.loc 12 416 19 view .LVU93
 512 00ac 0020     		movs	r0, #0
 513 00ae 03EBC611 		add	r1, r3, r6, lsl #7
 514 00b2 CDF800A0 		str	r10, [sp]
 515              	.LBB649:
 516              	.LBB642:
 517              	.LBB636:
 518              	.LBB632:
 519              	.LBB629:
 359:../../libDaisy//src/dev/oled_ssd130x.h ****     }
 520              		.loc 11 359 42 view .LVU94
 521 00b6 6FEA090B 		mvn	fp, r9
 522 00ba 08EBC616 		add	r6, r8, r6, lsl #7
 523 00be 5FFA89F9 		uxtb	r9, r9
ARM GAS  /var/folders/g0/l1whnkgn26zgpvrkcv2dxrg40000gn/T//ccwTptqb.s 			page 35


 524 00c2 4144     		add	r1, r1, r8
 525 00c4 5FFA8BFB 		uxtb	fp, fp
 526 00c8 ACEB060C 		sub	ip, ip, r6
 527 00cc 09E0     		b	.L39
 528              	.LVL30:
 529              	.L67:
 359:../../libDaisy//src/dev/oled_ssd130x.h ****     }
 530              		.loc 11 359 42 view .LVU95
 531              	.LBE629:
 532              	.LBE632:
 533              	.LBE636:
 534              	.LBE642:
 535              	.LBE649:
 536              	.LBB650:
 537              	.LBB651:
 538              	.LBB652:
 354:../../libDaisy//src/dev/oled_ssd130x.h ****             return;
 539              		.loc 11 354 9 view .LVU96
 540 00ce 26B9     		cbnz	r6, .L36
 541              	.LVL31:
 542              	.LBB653:
 543              	.LBI653:
 352:../../libDaisy//src/dev/oled_ssd130x.h ****     {
 544              		.loc 11 352 10 is_stmt 1 view .LVU97
 352:../../libDaisy//src/dev/oled_ssd130x.h ****     {
 545              		.loc 11 352 10 is_stmt 0 view .LVU98
 546              	.LBE653:
 357:../../libDaisy//src/dev/oled_ssd130x.h ****         else
 547              		.loc 11 357 20 view .LVU99
 548 00d0 0E78     		ldrb	r6, [r1]	@ zero_extendqisi2
 356:../../libDaisy//src/dev/oled_ssd130x.h ****             buffer_[x + (y / 8) * width] |= (1 << (y % 8));
 549              		.loc 11 356 9 view .LVU100
 550 00d2 CFB1     		cbz	r7, .L38
 551              	.LVL32:
 552              	.L63:
 356:../../libDaisy//src/dev/oled_ssd130x.h ****             buffer_[x + (y / 8) * width] |= (1 << (y % 8));
 553              		.loc 11 356 9 view .LVU101
 554              	.LBE652:
 555              	.LBE651:
 556              	.LBE650:
 557              	.LBB661:
 558              	.LBB643:
 559              	.LBB637:
 357:../../libDaisy//src/dev/oled_ssd130x.h ****         else
 560              		.loc 11 357 42 view .LVU102
 561 00d4 49EA0606 		orr	r6, r9, r6
 562 00d8 0E70     		strb	r6, [r1]
 563              	.L36:
 564              	.LVL33:
 357:../../libDaisy//src/dev/oled_ssd130x.h ****         else
 565              		.loc 11 357 42 view .LVU103
 566              	.LBE637:
 567              	.LBE643:
 568              	.LBE661:
 416:../../libDaisy//src/hid/disp/display.h ****             {
 569              		.loc 12 416 13 is_stmt 1 discriminator 2 view .LVU104
 570 00da 0130     		adds	r0, r0, #1
ARM GAS  /var/folders/g0/l1whnkgn26zgpvrkcv2dxrg40000gn/T//ccwTptqb.s 			page 36


 571              	.LVL34:
 416:../../libDaisy//src/hid/disp/display.h ****             {
 572              		.loc 12 416 26 discriminator 1 view .LVU105
 573 00dc 0131     		adds	r1, r1, #1
 574 00de A042     		cmp	r0, r4
 575 00e0 1AD0     		beq	.L66
 576              	.LVL35:
 577              	.L39:
 578              	.LBB662:
 579              	.LBI650:
  35:../../libDaisy//src/hid/disp/oled_display.h **** 
  36:../../libDaisy//src/hid/disp/oled_display.h ****     /**
  37:../../libDaisy//src/hid/disp/oled_display.h ****     Sets the pixel at the specified coordinate to be on/off.
  38:../../libDaisy//src/hid/disp/oled_display.h ****     \param x   x Coordinate
  39:../../libDaisy//src/hid/disp/oled_display.h ****     \param y   y coordinate
  40:../../libDaisy//src/hid/disp/oled_display.h ****     \param on  on or off
  41:../../libDaisy//src/hid/disp/oled_display.h ****     */
  42:../../libDaisy//src/hid/disp/oled_display.h ****     void DrawPixel(uint_fast8_t x, uint_fast8_t y, bool on) override
 580              		.loc 10 42 10 view .LVU106
 581              	.LBB657:
 582              	.LBI651:
 352:../../libDaisy//src/dev/oled_ssd130x.h ****     {
 583              		.loc 11 352 10 view .LVU107
 352:../../libDaisy//src/dev/oled_ssd130x.h ****     {
 584              		.loc 11 352 10 is_stmt 0 view .LVU108
 585              	.LBE657:
 586              	.LBE662:
 587              	.LBB663:
 588              	.LBI624:
 589              		.loc 10 42 10 is_stmt 1 view .LVU109
 590              	.LBB644:
 591              	.LBI625:
 352:../../libDaisy//src/dev/oled_ssd130x.h ****     {
 592              		.loc 11 352 10 view .LVU110
 593              	.LBE644:
 594              	.LBE663:
 595              	.LBB664:
 596              	.LBB658:
 597              	.LBB654:
 354:../../libDaisy//src/dev/oled_ssd130x.h ****             return;
 598              		.loc 11 354 14 is_stmt 0 view .LVU111
 599 00e2 0CEB0106 		add	r6, ip, r1
 600              	.LBE654:
 601              	.LBE658:
 602              	.LBE664:
 418:../../libDaisy//src/hid/disp/display.h ****                 {
 603              		.loc 12 418 23 view .LVU112
 604 00e6 05FA00FA 		lsl	r10, r5, r0
 605              	.LBB665:
 606              	.LBB659:
 607              	.LBB655:
 354:../../libDaisy//src/dev/oled_ssd130x.h ****             return;
 608              		.loc 11 354 23 view .LVU113
 609 00ea BEF13F0F 		cmp	lr, #63
 610 00ee 98BF     		it	ls
 611 00f0 7F2E     		cmpls	r6, #127
 612 00f2 8CBF     		ite	hi
ARM GAS  /var/folders/g0/l1whnkgn26zgpvrkcv2dxrg40000gn/T//ccwTptqb.s 			page 37


 613 00f4 0126     		movhi	r6, #1
 614 00f6 0026     		movls	r6, #0
 615              	.LBE655:
 616              	.LBE659:
 617              	.LBE665:
 418:../../libDaisy//src/hid/disp/display.h ****                 {
 618              		.loc 12 418 17 view .LVU114
 619 00f8 1AF4004F 		tst	r10, #32768
 620 00fc E7D1     		bne	.L67
 621              	.LBB666:
 622              	.LBB645:
 623              	.LBB638:
 354:../../libDaisy//src/dev/oled_ssd130x.h ****             return;
 624              		.loc 11 354 9 view .LVU115
 625 00fe 002E     		cmp	r6, #0
 626 0100 EBD1     		bne	.L36
 627              	.LVL36:
 628              	.LBB633:
 629              	.LBI627:
 352:../../libDaisy//src/dev/oled_ssd130x.h ****     {
 630              		.loc 11 352 10 is_stmt 1 view .LVU116
 352:../../libDaisy//src/dev/oled_ssd130x.h ****     {
 631              		.loc 11 352 10 is_stmt 0 view .LVU117
 632              	.LBE633:
 633              	.LBE638:
 634              	.LBE645:
 635              	.LBE666:
 636              	.LBB667:
 637              	.LBB660:
 638              	.LBB656:
 357:../../libDaisy//src/dev/oled_ssd130x.h ****         else
 639              		.loc 11 357 20 view .LVU118
 640 0102 0E78     		ldrb	r6, [r1]	@ zero_extendqisi2
 641              	.LBE656:
 642              	.LBE660:
 643              	.LBE667:
 644              	.LBB668:
 645              	.LBB646:
 646              	.LBB639:
 356:../../libDaisy//src/dev/oled_ssd130x.h ****             buffer_[x + (y / 8) * width] |= (1 << (y % 8));
 647              		.loc 11 356 9 view .LVU119
 648 0104 002F     		cmp	r7, #0
 649 0106 E5D0     		beq	.L63
 650              	.LVL37:
 651              	.L38:
 356:../../libDaisy//src/dev/oled_ssd130x.h ****             buffer_[x + (y / 8) * width] |= (1 << (y % 8));
 652              		.loc 11 356 9 view .LVU120
 653              	.LBE639:
 654              	.LBE646:
 655              	.LBE668:
 416:../../libDaisy//src/hid/disp/display.h ****             {
 656              		.loc 12 416 13 discriminator 2 view .LVU121
 657 0108 0130     		adds	r0, r0, #1
 658              	.LVL38:
 659              	.LBB669:
 660              	.LBB647:
 661              	.LBB640:
ARM GAS  /var/folders/g0/l1whnkgn26zgpvrkcv2dxrg40000gn/T//ccwTptqb.s 			page 38


 662              	.LBB634:
 663              	.LBB630:
 359:../../libDaisy//src/dev/oled_ssd130x.h ****     }
 664              		.loc 11 359 42 view .LVU122
 665 010a 0BEA0606 		and	r6, fp, r6
 666              	.LBE630:
 667              	.LBE634:
 668              	.LBE640:
 669              	.LBE647:
 670              	.LBE669:
 416:../../libDaisy//src/hid/disp/display.h ****             {
 671              		.loc 12 416 26 discriminator 1 view .LVU123
 672 010e 0131     		adds	r1, r1, #1
 673 0110 A042     		cmp	r0, r4
 674              	.LBB670:
 675              	.LBB648:
 676              	.LBB641:
 677              	.LBB635:
 678              	.LBB631:
 359:../../libDaisy//src/dev/oled_ssd130x.h ****     }
 679              		.loc 11 359 42 view .LVU124
 680 0112 01F8016C 		strb	r6, [r1, #-1]
 681              	.LVL39:
 359:../../libDaisy//src/dev/oled_ssd130x.h ****     }
 682              		.loc 11 359 42 view .LVU125
 683              	.LBE631:
 684              	.LBE635:
 685              	.LBE641:
 686              	.LBE648:
 687              	.LBE670:
 416:../../libDaisy//src/hid/disp/display.h ****             {
 688              		.loc 12 416 13 is_stmt 1 discriminator 2 view .LVU126
 416:../../libDaisy//src/hid/disp/display.h ****             {
 689              		.loc 12 416 26 discriminator 1 view .LVU127
 690 0116 E4D1     		bne	.L39
 691              	.L66:
 413:../../libDaisy//src/hid/disp/display.h ****         {
 692              		.loc 12 413 22 is_stmt 0 discriminator 1 view .LVU128
 693 0118 DDF800A0 		ldr	r10, [sp]
 413:../../libDaisy//src/hid/disp/display.h ****         {
 694              		.loc 12 413 9 is_stmt 1 discriminator 2 view .LVU129
 695              	.LVL40:
 413:../../libDaisy//src/hid/disp/display.h ****         {
 696              		.loc 12 413 22 discriminator 1 view .LVU130
 697 011c 0EF1010E 		add	lr, lr, #1
 698 0120 9245     		cmp	r10, r2
 699 0122 24D0     		beq	.L61
 700              	.LVL41:
 415:../../libDaisy//src/hid/disp/display.h ****             for(j = 0; j < font.FontWidth; j++)
 701              		.loc 12 415 15 is_stmt 0 view .LVU131
 702 0124 3AF8025F 		ldrh	r5, [r10, #2]!
 703              	.LVL42:
 416:../../libDaisy//src/hid/disp/display.h ****             {
 704              		.loc 12 416 26 is_stmt 1 discriminator 1 view .LVU132
 705 0128 B6E7     		b	.L32
 706              	.LVL43:
 707              	.L27:
ARM GAS  /var/folders/g0/l1whnkgn26zgpvrkcv2dxrg40000gn/T//ccwTptqb.s 			page 39


 402:../../libDaisy//src/hid/disp/display.h **** 
 708              		.loc 12 402 20 is_stmt 0 view .LVU133
 709 012a 0020     		movs	r0, #0
 435:../../libDaisy//src/hid/disp/display.h **** 
 436:../../libDaisy//src/hid/disp/display.h ****         // Return written char for validation
 437:../../libDaisy//src/hid/disp/display.h ****         return ch;
 438:../../libDaisy//src/hid/disp/display.h ****     }
 710              		.loc 12 438 5 view .LVU134
 711 012c 07B0     		add	sp, sp, #28
 712              		.cfi_remember_state
 713              		.cfi_def_cfa_offset 36
 714              		@ sp needed
 715 012e BDE8F08F 		pop	{r4, r5, r6, r7, r8, r9, r10, fp, pc}
 716              	.LVL44:
 717              	.L34:
 718              		.cfi_restore_state
 413:../../libDaisy//src/hid/disp/display.h ****         {
 719              		.loc 12 413 9 is_stmt 1 discriminator 2 view .LVU135
 413:../../libDaisy//src/hid/disp/display.h ****         {
 720              		.loc 12 413 22 discriminator 1 view .LVU136
 413:../../libDaisy//src/hid/disp/display.h ****         {
 721              		.loc 12 413 22 is_stmt 0 discriminator 1 view .LVU137
 722 0132 D345     		cmp	fp, r10
 415:../../libDaisy//src/hid/disp/display.h ****             for(j = 0; j < font.FontWidth; j++)
 723              		.loc 12 415 58 view .LVU138
 724 0134 0AF1020A 		add	r10, r10, #2
 725              	.LVL45:
 416:../../libDaisy//src/hid/disp/display.h ****             {
 726              		.loc 12 416 26 is_stmt 1 discriminator 1 view .LVU139
 413:../../libDaisy//src/hid/disp/display.h ****         {
 727              		.loc 12 413 22 is_stmt 0 discriminator 1 view .LVU140
 728 0138 FBD1     		bne	.L34
 729              	.LVL46:
 730              	.L33:
 731              	.LBB671:
 732              	.LBB672:
 173:../../libDaisy//src/hid/disp/display.h ****         currentY_ = (y >= Height()) ? Height() - 1 : y;
 733              		.loc 12 173 32 view .LVU141
 734 013a D8F80030 		ldr	r3, [r8]
 735              	.LBE672:
 736              	.LBE671:
 434:../../libDaisy//src/hid/disp/display.h **** 
 737              		.loc 12 434 18 view .LVU142
 738 013e 0C44     		add	r4, r4, r1
 739              	.LVL47:
 434:../../libDaisy//src/hid/disp/display.h **** 
 740              		.loc 12 434 18 view .LVU143
 741 0140 2149     		ldr	r1, .L70
 742              	.LBB677:
 743              	.LBB673:
 173:../../libDaisy//src/hid/disp/display.h ****         currentY_ = (y >= Height()) ? Height() - 1 : y;
 744              		.loc 12 173 32 view .LVU144
 745 0142 DA68     		ldr	r2, [r3, #12]
 746              	.LBE673:
 747              	.LBE677:
 434:../../libDaisy//src/hid/disp/display.h **** 
 748              		.loc 12 434 18 view .LVU145
ARM GAS  /var/folders/g0/l1whnkgn26zgpvrkcv2dxrg40000gn/T//ccwTptqb.s 			page 40


 749 0144 A4B2     		uxth	r4, r4
 750              	.LVL48:
 751              	.LBB678:
 752              	.LBI671:
 171:../../libDaisy//src/hid/disp/display.h ****     {
 753              		.loc 12 171 10 is_stmt 1 view .LVU146
 754              	.LBB674:
 173:../../libDaisy//src/hid/disp/display.h ****         currentY_ = (y >= Height()) ? Height() - 1 : y;
 755              		.loc 12 173 9 view .LVU147
 756 0146 8A42     		cmp	r2, r1
 757 0148 2AD1     		bne	.L68
 173:../../libDaisy//src/hid/disp/display.h ****         currentY_ = (y >= Height()) ? Height() - 1 : y;
 758              		.loc 12 173 19 is_stmt 0 discriminator 1 view .LVU148
 759 014a 802C     		cmp	r4, #128
 760 014c 28BF     		it	cs
 761 014e 7F24     		movcs	r4, #127
 762              	.LVL49:
 763              	.L41:
 174:../../libDaisy//src/hid/disp/display.h ****     }
 764              		.loc 12 174 33 view .LVU149
 765 0150 9B68     		ldr	r3, [r3, #8]
 766 0152 1E4A     		ldr	r2, .L70+4
 173:../../libDaisy//src/hid/disp/display.h ****         currentY_ = (y >= Height()) ? Height() - 1 : y;
 767              		.loc 12 173 19 discriminator 4 view .LVU150
 768 0154 A8F80440 		strh	r4, [r8, #4]	@ movhi
 174:../../libDaisy//src/hid/disp/display.h ****     }
 769              		.loc 12 174 9 is_stmt 1 view .LVU151
 770 0158 9342     		cmp	r3, r2
 771 015a 12D1     		bne	.L69
 174:../../libDaisy//src/hid/disp/display.h ****     }
 772              		.loc 12 174 19 is_stmt 0 discriminator 1 view .LVU152
 773 015c 3F2E     		cmp	r6, #63
 774 015e 00D9     		bls	.L45
 775              	.L48:
 173:../../libDaisy//src/hid/disp/display.h ****         currentY_ = (y >= Height()) ? Height() - 1 : y;
 776              		.loc 12 173 19 discriminator 1 view .LVU153
 777 0160 3F26     		movs	r6, #63
 778              	.LVL50:
 779              	.L45:
 173:../../libDaisy//src/hid/disp/display.h ****         currentY_ = (y >= Height()) ? Height() - 1 : y;
 780              		.loc 12 173 19 discriminator 1 view .LVU154
 781              	.LBE674:
 782              	.LBE678:
 437:../../libDaisy//src/hid/disp/display.h ****     }
 783              		.loc 12 437 16 view .LVU155
 784 0162 4846     		mov	r0, r9
 785              	.LBB679:
 786              	.LBB675:
 174:../../libDaisy//src/hid/disp/display.h ****     }
 787              		.loc 12 174 19 discriminator 4 view .LVU156
 788 0164 A8F80660 		strh	r6, [r8, #6]	@ movhi
 789              	.LVL51:
 174:../../libDaisy//src/hid/disp/display.h ****     }
 790              		.loc 12 174 19 discriminator 4 view .LVU157
 791              	.LBE675:
 792              	.LBE679:
 793              		.loc 12 438 5 view .LVU158
ARM GAS  /var/folders/g0/l1whnkgn26zgpvrkcv2dxrg40000gn/T//ccwTptqb.s 			page 41


 794 0168 07B0     		add	sp, sp, #28
 795              		.cfi_remember_state
 796              		.cfi_def_cfa_offset 36
 797              		@ sp needed
 798 016a BDE8F08F 		pop	{r4, r5, r6, r7, r8, r9, r10, fp, pc}
 799              	.LVL52:
 800              	.L61:
 801              		.cfi_restore_state
 802              		.loc 12 438 5 view .LVU159
 803 016e DDE90161 		ldrd	r6, r1, [sp, #4]
 804 0172 DDF80C90 		ldr	r9, [sp, #12]
 805 0176 E0E7     		b	.L33
 806              	.LVL53:
 807              	.L64:
 405:../../libDaisy//src/hid/disp/display.h ****            || Height() < (currentY_ + font.FontHeight))
 808              		.loc 12 405 17 view .LVU160
 809 0178 9847     		blx	r3
 810              	.LVL54:
 405:../../libDaisy//src/hid/disp/display.h ****            || Height() < (currentY_ + font.FontHeight))
 811              		.loc 12 405 17 view .LVU161
 812 017a 5CE7     		b	.L26
 813              	.L65:
 406:../../libDaisy//src/hid/disp/display.h ****         {
 814              		.loc 12 406 21 discriminator 2 view .LVU162
 815 017c 4046     		mov	r0, r8
 816 017e 9847     		blx	r3
 817              	.LVL55:
 818 0180 66E7     		b	.L28
 819              	.LVL56:
 820              	.L69:
 821              	.LBB680:
 822              	.LBB676:
 174:../../libDaisy//src/hid/disp/display.h ****     }
 823              		.loc 12 174 33 view .LVU163
 824 0182 4046     		mov	r0, r8
 825 0184 9847     		blx	r3
 826              	.LVL57:
 174:../../libDaisy//src/hid/disp/display.h ****     }
 827              		.loc 12 174 19 discriminator 1 view .LVU164
 828 0186 8642     		cmp	r6, r0
 829 0188 EBD3     		bcc	.L45
 174:../../libDaisy//src/hid/disp/display.h ****     }
 830              		.loc 12 174 45 discriminator 1 view .LVU165
 831 018a D8F80030 		ldr	r3, [r8]
 832 018e 0F4A     		ldr	r2, .L70+4
 833 0190 9B68     		ldr	r3, [r3, #8]
 834 0192 9342     		cmp	r3, r2
 835 0194 E4D0     		beq	.L48
 836 0196 4046     		mov	r0, r8
 837 0198 9847     		blx	r3
 838              	.LVL58:
 174:../../libDaisy//src/hid/disp/display.h ****     }
 839              		.loc 12 174 19 discriminator 1 view .LVU166
 840 019a 431E     		subs	r3, r0, #1
 841 019c 9EB2     		uxth	r6, r3
 842              	.LVL59:
 174:../../libDaisy//src/hid/disp/display.h ****     }
ARM GAS  /var/folders/g0/l1whnkgn26zgpvrkcv2dxrg40000gn/T//ccwTptqb.s 			page 42


 843              		.loc 12 174 19 discriminator 1 view .LVU167
 844 019e E0E7     		b	.L45
 845              	.LVL60:
 846              	.L68:
 173:../../libDaisy//src/hid/disp/display.h ****         currentY_ = (y >= Height()) ? Height() - 1 : y;
 847              		.loc 12 173 32 view .LVU168
 848 01a0 4046     		mov	r0, r8
 849 01a2 9047     		blx	r2
 850              	.LVL61:
 173:../../libDaisy//src/hid/disp/display.h ****         currentY_ = (y >= Height()) ? Height() - 1 : y;
 851              		.loc 12 173 19 discriminator 1 view .LVU169
 852 01a4 8442     		cmp	r4, r0
 173:../../libDaisy//src/hid/disp/display.h ****         currentY_ = (y >= Height()) ? Height() - 1 : y;
 853              		.loc 12 173 43 discriminator 1 view .LVU170
 854 01a6 D8F80030 		ldr	r3, [r8]
 173:../../libDaisy//src/hid/disp/display.h ****         currentY_ = (y >= Height()) ? Height() - 1 : y;
 855              		.loc 12 173 19 discriminator 1 view .LVU171
 856 01aa D1D3     		bcc	.L41
 173:../../libDaisy//src/hid/disp/display.h ****         currentY_ = (y >= Height()) ? Height() - 1 : y;
 857              		.loc 12 173 43 discriminator 1 view .LVU172
 858 01ac DA68     		ldr	r2, [r3, #12]
 859 01ae 0649     		ldr	r1, .L70
 860 01b0 8A42     		cmp	r2, r1
 861 01b2 06D0     		beq	.L52
 862 01b4 4046     		mov	r0, r8
 863 01b6 9047     		blx	r2
 864              	.LVL62:
 173:../../libDaisy//src/hid/disp/display.h ****         currentY_ = (y >= Height()) ? Height() - 1 : y;
 865              		.loc 12 173 19 discriminator 1 view .LVU173
 866 01b8 441E     		subs	r4, r0, #1
 867              	.LVL63:
 174:../../libDaisy//src/hid/disp/display.h ****     }
 868              		.loc 12 174 33 view .LVU174
 869 01ba D8F80030 		ldr	r3, [r8]
 173:../../libDaisy//src/hid/disp/display.h ****         currentY_ = (y >= Height()) ? Height() - 1 : y;
 870              		.loc 12 173 19 discriminator 1 view .LVU175
 871 01be A4B2     		uxth	r4, r4
 872 01c0 C6E7     		b	.L41
 873              	.LVL64:
 874              	.L52:
 173:../../libDaisy//src/hid/disp/display.h ****         currentY_ = (y >= Height()) ? Height() - 1 : y;
 875              		.loc 12 173 43 discriminator 1 view .LVU176
 876 01c2 7F24     		movs	r4, #127
 877              	.LVL65:
 173:../../libDaisy//src/hid/disp/display.h ****         currentY_ = (y >= Height()) ? Height() - 1 : y;
 878              		.loc 12 173 43 discriminator 1 view .LVU177
 879 01c4 C4E7     		b	.L41
 880              	.L71:
 881 01c6 00BF     		.align	2
 882              	.L70:
 883 01c8 00000000 		.word	_ZNK5daisy11OledDisplayINS_13SSD130xDriverILj128ELj64ENS_19SSD130xI2CTransportEEEE5WidthEv
 884 01cc 00000000 		.word	_ZNK5daisy11OledDisplayINS_13SSD130xDriverILj128ELj64ENS_19SSD130xI2CTransportEEEE6HeightEv
 885              	.LBE676:
 886              	.LBE680:
 887              		.cfi_endproc
 888              	.LFE5333:
 890              		.section	.text._ZN5daisy11OledDisplayINS_13SSD130xDriverILj128ELj64ENS_19SSD130xI2CTransportEEEE6U
ARM GAS  /var/folders/g0/l1whnkgn26zgpvrkcv2dxrg40000gn/T//ccwTptqb.s 			page 43


 891              		.align	1
 892              		.p2align 2,,3
 893              		.weak	_ZN5daisy11OledDisplayINS_13SSD130xDriverILj128ELj64ENS_19SSD130xI2CTransportEEEE6UpdateEv
 894              		.syntax unified
 895              		.thumb
 896              		.thumb_func
 898              	_ZN5daisy11OledDisplayINS_13SSD130xDriverILj128ELj64ENS_19SSD130xI2CTransportEEEE6UpdateEv:
 899              	.LVL66:
 900              	.LFB5170:
  43:../../libDaisy//src/hid/disp/oled_display.h ****     {
  44:../../libDaisy//src/hid/disp/oled_display.h ****         driver_.DrawPixel(x, y, on);
  45:../../libDaisy//src/hid/disp/oled_display.h ****     }
  46:../../libDaisy//src/hid/disp/oled_display.h **** 
  47:../../libDaisy//src/hid/disp/oled_display.h ****     /** 
  48:../../libDaisy//src/hid/disp/oled_display.h ****     Writes the current display buffer to the OLED device using SPI or I2C depending on 
  49:../../libDaisy//src/hid/disp/oled_display.h ****     how the object was initialized.
  50:../../libDaisy//src/hid/disp/oled_display.h ****     */
  51:../../libDaisy//src/hid/disp/oled_display.h ****     void Update() override { driver_.Update(); }
 901              		.loc 10 51 10 is_stmt 1 view -0
 902              		.cfi_startproc
 903              		@ args = 0, pretend = 0, frame = 8
 904              		@ frame_needed = 0, uses_anonymous_args = 0
 905              		.loc 10 51 10 is_stmt 0 view .LVU179
 906 0000 2DE9F047 		push	{r4, r5, r6, r7, r8, r9, r10, lr}
 907              		.cfi_def_cfa_offset 32
 908              		.cfi_offset 4, -32
 909              		.cfi_offset 5, -28
 910              		.cfi_offset 6, -24
 911              		.cfi_offset 7, -20
 912              		.cfi_offset 8, -16
 913              		.cfi_offset 9, -12
 914              		.cfi_offset 10, -8
 915              		.cfi_offset 14, -4
 916 0004 4FF0B008 		mov	r8, #176
 917 0008 84B0     		sub	sp, sp, #16
 918              		.cfi_def_cfa_offset 48
 919              		.loc 10 51 10 view .LVU180
 920 000a 0546     		mov	r5, r0
 921              	.LVL67:
 922              	.LBB693:
 923              	.LBI693:
 367:../../libDaisy//src/dev/oled_ssd130x.h ****         }
 368:../../libDaisy//src/dev/oled_ssd130x.h ****     };
 369:../../libDaisy//src/dev/oled_ssd130x.h **** 
 370:../../libDaisy//src/dev/oled_ssd130x.h ****     /**
 371:../../libDaisy//src/dev/oled_ssd130x.h ****      * Update the display 
 372:../../libDaisy//src/dev/oled_ssd130x.h ****     */
 373:../../libDaisy//src/dev/oled_ssd130x.h ****     void Update()
 924              		.loc 11 373 10 is_stmt 1 view .LVU181
 925              	.LBB694:
 374:../../libDaisy//src/dev/oled_ssd130x.h ****     {
 375:../../libDaisy//src/dev/oled_ssd130x.h ****         uint8_t i;
 376:../../libDaisy//src/dev/oled_ssd130x.h ****         uint8_t high_column_addr;
 377:../../libDaisy//src/dev/oled_ssd130x.h ****         switch(height)
 378:../../libDaisy//src/dev/oled_ssd130x.h ****         {
 379:../../libDaisy//src/dev/oled_ssd130x.h ****             case 32: high_column_addr = 0x12; break;
 380:../../libDaisy//src/dev/oled_ssd130x.h **** 
ARM GAS  /var/folders/g0/l1whnkgn26zgpvrkcv2dxrg40000gn/T//ccwTptqb.s 			page 44


 381:../../libDaisy//src/dev/oled_ssd130x.h ****             default: high_column_addr = 0x10; break;
 382:../../libDaisy//src/dev/oled_ssd130x.h ****         }
 383:../../libDaisy//src/dev/oled_ssd130x.h ****         for(i = 0; i < (height / 8); i++)
 926              		.loc 11 383 22 discriminator 1 view .LVU182
 927 000c 00F10807 		add	r7, r0, #8
 928              	.LVL68:
 929              		.loc 11 383 22 is_stmt 0 discriminator 1 view .LVU183
 930 0010 00F18F06 		add	r6, r0, #143
 931 0014 00F28F49 		addw	r9, r0, #1167
 932              	.LVL69:
 933              	.L74:
 934              	.LBB695:
 935              	.LBI695:
  42:../../libDaisy//src/dev/oled_ssd130x.h ****     {
 936              		.loc 11 42 10 is_stmt 1 view .LVU184
 937              	.LBB696:
  44:../../libDaisy//src/dev/oled_ssd130x.h ****         i2c_.TransmitBlocking(i2c_address_, buf, 2, 1000);
 938              		.loc 11 44 9 view .LVU185
  45:../../libDaisy//src/dev/oled_ssd130x.h ****     };
 939              		.loc 11 45 30 is_stmt 0 view .LVU186
 940 0018 4FF47A74 		mov	r4, #1000
  44:../../libDaisy//src/dev/oled_ssd130x.h ****         i2c_.TransmitBlocking(i2c_address_, buf, 2, 1000);
 941              		.loc 11 44 17 view .LVU187
 942 001c 4FF0000A 		mov	r10, #0
  45:../../libDaisy//src/dev/oled_ssd130x.h ****     };
 943              		.loc 11 45 30 view .LVU188
 944 0020 297B     		ldrb	r1, [r5, #12]	@ zero_extendqisi2
 945 0022 0223     		movs	r3, #2
 946 0024 03AA     		add	r2, sp, #12
 947 0026 0094     		str	r4, [sp]
 948 0028 3846     		mov	r0, r7
  44:../../libDaisy//src/dev/oled_ssd130x.h ****         i2c_.TransmitBlocking(i2c_address_, buf, 2, 1000);
 949              		.loc 11 44 17 view .LVU189
 950 002a 8DF80CA0 		strb	r10, [sp, #12]
  44:../../libDaisy//src/dev/oled_ssd130x.h ****         i2c_.TransmitBlocking(i2c_address_, buf, 2, 1000);
 951              		.loc 11 44 36 view .LVU190
 952 002e 8DF80D80 		strb	r8, [sp, #13]
  45:../../libDaisy//src/dev/oled_ssd130x.h ****     };
 953              		.loc 11 45 9 is_stmt 1 view .LVU191
  45:../../libDaisy//src/dev/oled_ssd130x.h ****     };
 954              		.loc 11 45 30 is_stmt 0 view .LVU192
 955 0032 FFF7FEFF 		bl	_ZN5daisy9I2CHandle16TransmitBlockingEtPhtm
 956              	.LVL70:
  45:../../libDaisy//src/dev/oled_ssd130x.h ****     };
 957              		.loc 11 45 30 view .LVU193
 958              	.LBE696:
 959              	.LBE695:
 960              	.LBB697:
 961              	.LBI697:
  42:../../libDaisy//src/dev/oled_ssd130x.h ****     {
 962              		.loc 11 42 10 is_stmt 1 view .LVU194
 963              	.LBB698:
  44:../../libDaisy//src/dev/oled_ssd130x.h ****         i2c_.TransmitBlocking(i2c_address_, buf, 2, 1000);
 964              		.loc 11 44 9 view .LVU195
  45:../../libDaisy//src/dev/oled_ssd130x.h ****     };
 965              		.loc 11 45 30 is_stmt 0 view .LVU196
 966 0036 297B     		ldrb	r1, [r5, #12]	@ zero_extendqisi2
ARM GAS  /var/folders/g0/l1whnkgn26zgpvrkcv2dxrg40000gn/T//ccwTptqb.s 			page 45


 967 0038 0223     		movs	r3, #2
 968 003a 03AA     		add	r2, sp, #12
 969 003c 0094     		str	r4, [sp]
 970 003e 3846     		mov	r0, r7
  44:../../libDaisy//src/dev/oled_ssd130x.h ****         i2c_.TransmitBlocking(i2c_address_, buf, 2, 1000);
 971              		.loc 11 44 17 view .LVU197
 972 0040 ADF80CA0 		strh	r10, [sp, #12]	@ movhi
  45:../../libDaisy//src/dev/oled_ssd130x.h ****     };
 973              		.loc 11 45 9 is_stmt 1 view .LVU198
  45:../../libDaisy//src/dev/oled_ssd130x.h ****     };
 974              		.loc 11 45 30 is_stmt 0 view .LVU199
 975 0044 FFF7FEFF 		bl	_ZN5daisy9I2CHandle16TransmitBlockingEtPhtm
 976              	.LVL71:
  45:../../libDaisy//src/dev/oled_ssd130x.h ****     };
 977              		.loc 11 45 30 view .LVU200
 978              	.LBE698:
 979              	.LBE697:
 980              	.LBB699:
 981              	.LBI699:
  42:../../libDaisy//src/dev/oled_ssd130x.h ****     {
 982              		.loc 11 42 10 is_stmt 1 view .LVU201
 983              	.LBB700:
  44:../../libDaisy//src/dev/oled_ssd130x.h ****         i2c_.TransmitBlocking(i2c_address_, buf, 2, 1000);
 984              		.loc 11 44 9 view .LVU202
  44:../../libDaisy//src/dev/oled_ssd130x.h ****         i2c_.TransmitBlocking(i2c_address_, buf, 2, 1000);
 985              		.loc 11 44 17 is_stmt 0 view .LVU203
 986 0048 4FF4805C 		mov	ip, #4096
  45:../../libDaisy//src/dev/oled_ssd130x.h ****     };
 987              		.loc 11 45 30 view .LVU204
 988 004c 297B     		ldrb	r1, [r5, #12]	@ zero_extendqisi2
 989 004e 0223     		movs	r3, #2
 990 0050 0094     		str	r4, [sp]
 991 0052 A6F18004 		sub	r4, r6, #128
 992 0056 03AA     		add	r2, sp, #12
 993 0058 3846     		mov	r0, r7
  44:../../libDaisy//src/dev/oled_ssd130x.h ****         i2c_.TransmitBlocking(i2c_address_, buf, 2, 1000);
 994              		.loc 11 44 17 view .LVU205
 995 005a ADF80CC0 		strh	ip, [sp, #12]	@ movhi
  45:../../libDaisy//src/dev/oled_ssd130x.h ****     };
 996              		.loc 11 45 9 is_stmt 1 view .LVU206
  45:../../libDaisy//src/dev/oled_ssd130x.h ****     };
 997              		.loc 11 45 30 is_stmt 0 view .LVU207
 998 005e FFF7FEFF 		bl	_ZN5daisy9I2CHandle16TransmitBlockingEtPhtm
 999              	.LVL72:
  45:../../libDaisy//src/dev/oled_ssd130x.h ****     };
 1000              		.loc 11 45 30 view .LVU208
 1001              	.LBE700:
 1002              	.LBE699:
 1003              	.LBB701:
 1004              	.LBI701:
  48:../../libDaisy//src/dev/oled_ssd130x.h ****     {
 1005              		.loc 11 48 10 is_stmt 1 view .LVU209
  50:../../libDaisy//src/dev/oled_ssd130x.h ****         {
 1006              		.loc 11 50 9 view .LVU210
 1007              	.LBB702:
  50:../../libDaisy//src/dev/oled_ssd130x.h ****         {
 1008              		.loc 11 50 29 discriminator 1 view .LVU211
ARM GAS  /var/folders/g0/l1whnkgn26zgpvrkcv2dxrg40000gn/T//ccwTptqb.s 			page 46


 1009              	.L73:
 1010              	.LBB703:
  52:../../libDaisy//src/dev/oled_ssd130x.h ****             i2c_.TransmitBlocking(i2c_address_, buf, 2, 1000);
 1011              		.loc 11 52 13 view .LVU212
  53:../../libDaisy//src/dev/oled_ssd130x.h ****         }
 1012              		.loc 11 53 34 is_stmt 0 view .LVU213
 1013 0062 4FF47A70 		mov	r0, #1000
  52:../../libDaisy//src/dev/oled_ssd130x.h ****             i2c_.TransmitBlocking(i2c_address_, buf, 2, 1000);
 1014              		.loc 11 52 44 view .LVU214
 1015 0066 14F801CF 		ldrb	ip, [r4, #1]!	@ zero_extendqisi2
 1016              	.LVL73:
  52:../../libDaisy//src/dev/oled_ssd130x.h ****             i2c_.TransmitBlocking(i2c_address_, buf, 2, 1000);
 1017              		.loc 11 52 21 view .LVU215
 1018 006a 4FF0400E 		mov	lr, #64
  53:../../libDaisy//src/dev/oled_ssd130x.h ****         }
 1019              		.loc 11 53 34 view .LVU216
 1020 006e 297B     		ldrb	r1, [r5, #12]	@ zero_extendqisi2
 1021 0070 0223     		movs	r3, #2
 1022 0072 0090     		str	r0, [sp]
 1023 0074 03AA     		add	r2, sp, #12
 1024 0076 3846     		mov	r0, r7
  52:../../libDaisy//src/dev/oled_ssd130x.h ****             i2c_.TransmitBlocking(i2c_address_, buf, 2, 1000);
 1025              		.loc 11 52 21 view .LVU217
 1026 0078 8DF80CE0 		strb	lr, [sp, #12]
  52:../../libDaisy//src/dev/oled_ssd130x.h ****             i2c_.TransmitBlocking(i2c_address_, buf, 2, 1000);
 1027              		.loc 11 52 44 view .LVU218
 1028 007c 8DF80DC0 		strb	ip, [sp, #13]
  53:../../libDaisy//src/dev/oled_ssd130x.h ****         }
 1029              		.loc 11 53 13 is_stmt 1 view .LVU219
  53:../../libDaisy//src/dev/oled_ssd130x.h ****         }
 1030              		.loc 11 53 34 is_stmt 0 view .LVU220
 1031 0080 FFF7FEFF 		bl	_ZN5daisy9I2CHandle16TransmitBlockingEtPhtm
 1032              	.LVL74:
 1033              	.LBE703:
  50:../../libDaisy//src/dev/oled_ssd130x.h ****         {
 1034              		.loc 11 50 9 is_stmt 1 discriminator 3 view .LVU221
  50:../../libDaisy//src/dev/oled_ssd130x.h ****         {
 1035              		.loc 11 50 29 discriminator 1 view .LVU222
 1036 0084 B442     		cmp	r4, r6
 1037 0086 ECD1     		bne	.L73
 1038              	.LVL75:
  50:../../libDaisy//src/dev/oled_ssd130x.h ****         {
 1039              		.loc 11 50 29 is_stmt 0 discriminator 1 view .LVU223
 1040              	.LBE702:
 1041              	.LBE701:
 1042              		.loc 11 383 9 is_stmt 1 discriminator 3 view .LVU224
 1043              		.loc 11 383 22 discriminator 1 view .LVU225
 1044 0088 04F18006 		add	r6, r4, #128
 1045 008c 08F10108 		add	r8, r8, #1
 1046              	.LVL76:
 1047              		.loc 11 383 22 is_stmt 0 discriminator 1 view .LVU226
 1048 0090 4E45     		cmp	r6, r9
 1049 0092 5FFA88F8 		uxtb	r8, r8
 1050              	.LVL77:
 1051              		.loc 11 383 22 discriminator 1 view .LVU227
 1052 0096 BFD1     		bne	.L74
 1053              	.LBE694:
ARM GAS  /var/folders/g0/l1whnkgn26zgpvrkcv2dxrg40000gn/T//ccwTptqb.s 			page 47


 1054              	.LBE693:
 1055              		.loc 10 51 48 view .LVU228
 1056 0098 04B0     		add	sp, sp, #16
 1057              		.cfi_def_cfa_offset 32
 1058              		@ sp needed
 1059 009a BDE8F087 		pop	{r4, r5, r6, r7, r8, r9, r10, pc}
 1060              		.loc 10 51 48 view .LVU229
 1061              		.cfi_endproc
 1062              	.LFE5170:
 1064 009e 00BF     		.section	.text._ZN5daisy11OledDisplayINS_13SSD130xDriverILj128ELj64ENS_19SSD130xI2CTransportEEEE9D
 1065              		.align	1
 1066              		.p2align 2,,3
 1067              		.weak	_ZN5daisy11OledDisplayINS_13SSD130xDriverILj128ELj64ENS_19SSD130xI2CTransportEEEE9DrawPixelE
 1068              		.syntax unified
 1069              		.thumb
 1070              		.thumb_func
 1072              	_ZN5daisy11OledDisplayINS_13SSD130xDriverILj128ELj64ENS_19SSD130xI2CTransportEEEE9DrawPixelEjjb:
 1073              	.LVL78:
 1074              	.LFB5173:
  42:../../libDaisy//src/hid/disp/oled_display.h ****     {
 1075              		.loc 10 42 10 is_stmt 1 view -0
 1076              		.cfi_startproc
 1077              		@ args = 0, pretend = 0, frame = 0
 1078              		@ frame_needed = 0, uses_anonymous_args = 0
 1079              		@ link register save eliminated.
 1080              	.LBB708:
 1081              	.LBI708:
 352:../../libDaisy//src/dev/oled_ssd130x.h ****     {
 1082              		.loc 11 352 10 view .LVU231
 1083              	.LBB709:
 354:../../libDaisy//src/dev/oled_ssd130x.h ****             return;
 1084              		.loc 11 354 9 is_stmt 0 view .LVU232
 1085 0000 7F29     		cmp	r1, #127
 1086 0002 14D8     		bhi	.L78
 1087 0004 3F2A     		cmp	r2, #63
 1088 0006 12D8     		bhi	.L78
 357:../../libDaisy//src/dev/oled_ssd130x.h ****         else
 1089              		.loc 11 357 28 view .LVU233
 1090 0008 4FEAD20C 		lsr	ip, r2, #3
 357:../../libDaisy//src/dev/oled_ssd130x.h ****         else
 1091              		.loc 11 357 54 view .LVU234
 1092 000c 02F00702 		and	r2, r2, #7
 1093              	.LVL79:
 357:../../libDaisy//src/dev/oled_ssd130x.h ****         else
 1094              		.loc 11 357 20 view .LVU235
 1095 0010 01EBCC11 		add	r1, r1, ip, lsl #7
 1096              	.LVL80:
 357:../../libDaisy//src/dev/oled_ssd130x.h ****         else
 1097              		.loc 11 357 48 view .LVU236
 1098 0014 4FF0010C 		mov	ip, #1
 357:../../libDaisy//src/dev/oled_ssd130x.h ****         else
 1099              		.loc 11 357 20 view .LVU237
 1100 0018 0844     		add	r0, r0, r1
 1101              	.LVL81:
 357:../../libDaisy//src/dev/oled_ssd130x.h ****         else
 1102              		.loc 11 357 48 view .LVU238
 1103 001a 0CFA02F1 		lsl	r1, ip, r2
ARM GAS  /var/folders/g0/l1whnkgn26zgpvrkcv2dxrg40000gn/T//ccwTptqb.s 			page 48


 357:../../libDaisy//src/dev/oled_ssd130x.h ****         else
 1104              		.loc 11 357 20 view .LVU239
 1105 001e 027C     		ldrb	r2, [r0, #16]	@ zero_extendqisi2
 356:../../libDaisy//src/dev/oled_ssd130x.h ****             buffer_[x + (y / 8) * width] |= (1 << (y % 8));
 1106              		.loc 11 356 9 view .LVU240
 1107 0020 13B1     		cbz	r3, .L80
 357:../../libDaisy//src/dev/oled_ssd130x.h ****         else
 1108              		.loc 11 357 42 view .LVU241
 1109 0022 0A43     		orrs	r2, r2, r1
 1110 0024 0274     		strb	r2, [r0, #16]
 1111 0026 7047     		bx	lr
 1112              	.L80:
 1113              	.LVL82:
 1114              	.LBB710:
 1115              	.LBI710:
 352:../../libDaisy//src/dev/oled_ssd130x.h ****     {
 1116              		.loc 11 352 10 is_stmt 1 view .LVU242
 1117              	.LBB711:
 359:../../libDaisy//src/dev/oled_ssd130x.h ****     }
 1118              		.loc 11 359 42 is_stmt 0 view .LVU243
 1119 0028 22EA0102 		bic	r2, r2, r1
 1120 002c 0274     		strb	r2, [r0, #16]
 1121              	.LVL83:
 1122              	.L78:
 359:../../libDaisy//src/dev/oled_ssd130x.h ****     }
 1123              		.loc 11 359 42 view .LVU244
 1124              	.LBE711:
 1125              	.LBE710:
 1126              	.LBE709:
 1127              	.LBE708:
  45:../../libDaisy//src/hid/disp/oled_display.h **** 
 1128              		.loc 10 45 5 view .LVU245
 1129 002e 7047     		bx	lr
 1130              		.cfi_endproc
 1131              	.LFE5173:
 1133              		.section	.text._ZN5daisy25OneBitGraphicsDisplayImplINS_11OledDisplayINS_13SSD130xDriverILj128ELj64
 1134              		.align	1
 1135              		.p2align 2,,3
 1136              		.weak	_ZN5daisy25OneBitGraphicsDisplayImplINS_11OledDisplayINS_13SSD130xDriverILj128ELj64ENS_19SSD
 1137              		.syntax unified
 1138              		.thumb
 1139              		.thumb_func
 1141              	_ZN5daisy25OneBitGraphicsDisplayImplINS_11OledDisplayINS_13SSD130xDriverILj128ELj64ENS_19SSD130xI2C
 1142              	.LVL84:
 1143              	.LFB5479:
 221:../../libDaisy//src/hid/disp/display.h ****                   uint_fast8_t y1,
 1144              		.loc 12 221 10 is_stmt 1 view -0
 1145              		.cfi_startproc
 1146              		@ args = 8, pretend = 0, frame = 8
 1147              		@ frame_needed = 0, uses_anonymous_args = 0
 221:../../libDaisy//src/hid/disp/display.h ****                   uint_fast8_t y1,
 1148              		.loc 12 221 10 is_stmt 0 view .LVU247
 1149 0000 2DE9F04F 		push	{r4, r5, r6, r7, r8, r9, r10, fp, lr}
 1150              		.cfi_def_cfa_offset 36
 1151              		.cfi_offset 4, -36
 1152              		.cfi_offset 5, -32
 1153              		.cfi_offset 6, -28
ARM GAS  /var/folders/g0/l1whnkgn26zgpvrkcv2dxrg40000gn/T//ccwTptqb.s 			page 49


 1154              		.cfi_offset 7, -24
 1155              		.cfi_offset 8, -20
 1156              		.cfi_offset 9, -16
 1157              		.cfi_offset 10, -12
 1158              		.cfi_offset 11, -8
 1159              		.cfi_offset 14, -4
 1160 0004 83B0     		sub	sp, sp, #12
 1161              		.cfi_def_cfa_offset 48
 227:../../libDaisy//src/hid/disp/display.h ****         int_fast16_t deltaY = abs((int_fast16_t)y2 - (int_fast16_t)y1);
 1162              		.loc 12 227 52 view .LVU248
 1163 0006 5D1A     		subs	r5, r3, r1
 221:../../libDaisy//src/hid/disp/display.h ****                   uint_fast8_t y1,
 1164              		.loc 12 221 10 view .LVU249
 1165 0008 0C9E     		ldr	r6, [sp, #48]
 227:../../libDaisy//src/hid/disp/display.h ****         int_fast16_t deltaY = abs((int_fast16_t)y2 - (int_fast16_t)y1);
 1166              		.loc 12 227 22 view .LVU250
 1167 000a 002D     		cmp	r5, #0
 221:../../libDaisy//src/hid/disp/display.h ****                   uint_fast8_t y1,
 1168              		.loc 12 221 10 view .LVU251
 1169 000c 9DF83490 		ldrb	r9, [sp, #52]	@ zero_extendqisi2
 228:../../libDaisy//src/hid/disp/display.h ****         int_fast16_t signX  = ((x1 < x2) ? 1 : -1);
 1170              		.loc 12 228 52 view .LVU252
 1171 0010 A6EB0208 		sub	r8, r6, r2
 227:../../libDaisy//src/hid/disp/display.h ****         int_fast16_t deltaY = abs((int_fast16_t)y2 - (int_fast16_t)y1);
 1172              		.loc 12 227 22 view .LVU253
 1173 0014 B8BF     		it	lt
 1174 0016 6D42     		rsblt	r5, r5, #0
 1175              	.LVL85:
 228:../../libDaisy//src/hid/disp/display.h ****         int_fast16_t signX  = ((x1 < x2) ? 1 : -1);
 1176              		.loc 12 228 22 view .LVU254
 1177 0018 B8F1000F 		cmp	r8, #0
 1178 001c B8BF     		it	lt
 1179 001e C8F10008 		rsblt	r8, r8, #0
 1180              	.LVL86:
 229:../../libDaisy//src/hid/disp/display.h ****         int_fast16_t signY  = ((y1 < y2) ? 1 : -1);
 1181              		.loc 12 229 42 discriminator 1 view .LVU255
 1182 0022 8B42     		cmp	r3, r1
 1183 0024 94BF     		ite	ls
 1184 0026 4FF0FF3A 		movls	r10, #-1
 1185 002a 4FF0010A 		movhi	r10, #1
 1186              	.LVL87:
 230:../../libDaisy//src/hid/disp/display.h ****         int_fast16_t error  = deltaX - deltaY;
 1187              		.loc 12 230 42 view .LVU256
 1188 002e 9642     		cmp	r6, r2
 231:../../libDaisy//src/hid/disp/display.h ****         int_fast16_t error2;
 1189              		.loc 12 231 22 view .LVU257
 1190 0030 A5EB080E 		sub	lr, r5, r8
 230:../../libDaisy//src/hid/disp/display.h ****         int_fast16_t error  = deltaX - deltaY;
 1191              		.loc 12 230 42 view .LVU258
 1192 0034 4DD8     		bhi	.L83
 1193              	.LVL88:
 1194              	.LBB728:
 1195              	.LBI728:
  42:../../libDaisy//src/hid/disp/oled_display.h ****     {
 1196              		.loc 10 42 10 is_stmt 1 view .LVU259
 1197              	.LBB729:
 1198              	.LBI729:
ARM GAS  /var/folders/g0/l1whnkgn26zgpvrkcv2dxrg40000gn/T//ccwTptqb.s 			page 50


 352:../../libDaisy//src/dev/oled_ssd130x.h ****     {
 1199              		.loc 11 352 10 view .LVU260
 1200              	.LBB730:
 1201 0036 4FF0FF34 		mov	r4, #-1
 354:../../libDaisy//src/dev/oled_ssd130x.h ****             return;
 1202              		.loc 11 354 9 is_stmt 0 view .LVU261
 1203 003a 7F2B     		cmp	r3, #127
 1204 003c 0194     		str	r4, [sp, #4]
 1205 003e 12D8     		bhi	.L84
 1206 0040 3F2E     		cmp	r6, #63
 1207 0042 10D8     		bhi	.L84
 1208              	.LVL89:
 1209              	.L94:
 357:../../libDaisy//src/dev/oled_ssd130x.h ****         else
 1210              		.loc 11 357 28 view .LVU262
 1211 0044 F408     		lsrs	r4, r6, #3
 357:../../libDaisy//src/dev/oled_ssd130x.h ****         else
 1212              		.loc 11 357 54 view .LVU263
 1213 0046 06F00707 		and	r7, r6, #7
 357:../../libDaisy//src/dev/oled_ssd130x.h ****         else
 1214              		.loc 11 357 48 view .LVU264
 1215 004a 4FF0010C 		mov	ip, #1
 357:../../libDaisy//src/dev/oled_ssd130x.h ****         else
 1216              		.loc 11 357 20 view .LVU265
 1217 004e 03EBC414 		add	r4, r3, r4, lsl #7
 357:../../libDaisy//src/dev/oled_ssd130x.h ****         else
 1218              		.loc 11 357 48 view .LVU266
 1219 0052 0CFA07FC 		lsl	ip, ip, r7
 357:../../libDaisy//src/dev/oled_ssd130x.h ****         else
 1220              		.loc 11 357 20 view .LVU267
 1221 0056 0444     		add	r4, r4, r0
 1222 0058 277C     		ldrb	r7, [r4, #16]	@ zero_extendqisi2
 356:../../libDaisy//src/dev/oled_ssd130x.h ****             buffer_[x + (y / 8) * width] |= (1 << (y % 8));
 1223              		.loc 11 356 9 view .LVU268
 1224 005a B9F1000F 		cmp	r9, #0
 1225 005e 3FD0     		beq	.L85
 357:../../libDaisy//src/dev/oled_ssd130x.h ****         else
 1226              		.loc 11 357 42 view .LVU269
 1227 0060 47EA0C07 		orr	r7, r7, ip
 1228 0064 2774     		strb	r7, [r4, #16]
 1229              	.L84:
 1230              	.LVL90:
 357:../../libDaisy//src/dev/oled_ssd130x.h ****         else
 1231              		.loc 11 357 42 view .LVU270
 1232              	.LBE730:
 1233              	.LBE729:
 1234              	.LBE728:
 239:../../libDaisy//src/hid/disp/display.h ****         {
 1235              		.loc 12 239 26 is_stmt 1 view .LVU271
 1236 0066 8B42     		cmp	r3, r1
 1237 0068 01D1     		bne	.L87
 1238              	.L100:
 239:../../libDaisy//src/hid/disp/display.h ****         {
 1239              		.loc 12 239 26 is_stmt 0 view .LVU272
 1240 006a 9642     		cmp	r6, r2
 1241 006c 29D0     		beq	.L81
 1242              	.L87:
ARM GAS  /var/folders/g0/l1whnkgn26zgpvrkcv2dxrg40000gn/T//ccwTptqb.s 			page 51


 243:../../libDaisy//src/hid/disp/display.h ****             {
 1243              		.loc 12 243 23 view .LVU273
 1244 006e C8F10007 		rsb	r7, r8, #0
 1245              	.L98:
 1246              	.LVL91:
 1247              	.LBB742:
 1248              	.LBI742:
  42:../../libDaisy//src/hid/disp/oled_display.h ****     {
 1249              		.loc 10 42 10 is_stmt 1 view .LVU274
 1250              	.LBB743:
 1251              	.LBI743:
 352:../../libDaisy//src/dev/oled_ssd130x.h ****     {
 1252              		.loc 11 352 10 view .LVU275
 1253              	.LBB744:
 354:../../libDaisy//src/dev/oled_ssd130x.h ****             return;
 1254              		.loc 11 354 9 is_stmt 0 view .LVU276
 1255 0072 7F29     		cmp	r1, #127
 1256 0074 14D8     		bhi	.L88
 354:../../libDaisy//src/dev/oled_ssd130x.h ****             return;
 1257              		.loc 11 354 9 view .LVU277
 1258 0076 3F2A     		cmp	r2, #63
 1259 0078 12D8     		bhi	.L88
 357:../../libDaisy//src/dev/oled_ssd130x.h ****         else
 1260              		.loc 11 357 28 view .LVU278
 1261 007a D408     		lsrs	r4, r2, #3
 357:../../libDaisy//src/dev/oled_ssd130x.h ****         else
 1262              		.loc 11 357 54 view .LVU279
 1263 007c 02F0070B 		and	fp, r2, #7
 357:../../libDaisy//src/dev/oled_ssd130x.h ****         else
 1264              		.loc 11 357 48 view .LVU280
 1265 0080 4FF0010C 		mov	ip, #1
 357:../../libDaisy//src/dev/oled_ssd130x.h ****         else
 1266              		.loc 11 357 20 view .LVU281
 1267 0084 01EBC414 		add	r4, r1, r4, lsl #7
 357:../../libDaisy//src/dev/oled_ssd130x.h ****         else
 1268              		.loc 11 357 48 view .LVU282
 1269 0088 0CFA0BFC 		lsl	ip, ip, fp
 357:../../libDaisy//src/dev/oled_ssd130x.h ****         else
 1270              		.loc 11 357 20 view .LVU283
 1271 008c 0444     		add	r4, r4, r0
 1272 008e 94F810B0 		ldrb	fp, [r4, #16]	@ zero_extendqisi2
 356:../../libDaisy//src/dev/oled_ssd130x.h ****             buffer_[x + (y / 8) * width] |= (1 << (y % 8));
 1273              		.loc 11 356 9 view .LVU284
 1274 0092 B9F1000F 		cmp	r9, #0
 1275 0096 17D0     		beq	.L89
 357:../../libDaisy//src/dev/oled_ssd130x.h ****         else
 1276              		.loc 11 357 42 view .LVU285
 1277 0098 4BEA0C0B 		orr	fp, fp, ip
 1278 009c 84F810B0 		strb	fp, [r4, #16]
 1279              	.L88:
 1280              	.LVL92:
 357:../../libDaisy//src/dev/oled_ssd130x.h ****         else
 1281              		.loc 11 357 42 view .LVU286
 1282              	.LBE744:
 1283              	.LBE743:
 1284              	.LBE742:
 243:../../libDaisy//src/hid/disp/display.h ****             {
ARM GAS  /var/folders/g0/l1whnkgn26zgpvrkcv2dxrg40000gn/T//ccwTptqb.s 			page 52


 1285              		.loc 12 243 13 view .LVU287
 1286 00a0 B7EB4E0F 		cmp	r7, lr, lsl #1
 242:../../libDaisy//src/hid/disp/display.h ****             if(error2 > -deltaY)
 1287              		.loc 12 242 20 view .LVU288
 1288 00a4 4FEA4E04 		lsl	r4, lr, #1
 1289              	.LVL93:
 243:../../libDaisy//src/hid/disp/display.h ****             {
 1290              		.loc 12 243 13 view .LVU289
 1291 00a8 02DA     		bge	.L90
 245:../../libDaisy//src/hid/disp/display.h ****                 x1 += signX;
 1292              		.loc 12 245 23 view .LVU290
 1293 00aa AEEB080E 		sub	lr, lr, r8
 1294              	.LVL94:
 246:../../libDaisy//src/hid/disp/display.h ****             }
 1295              		.loc 12 246 20 view .LVU291
 1296 00ae 5144     		add	r1, r1, r10
 1297              	.LVL95:
 1298              	.L90:
 249:../../libDaisy//src/hid/disp/display.h ****             {
 1299              		.loc 12 249 13 view .LVU292
 1300 00b0 A542     		cmp	r5, r4
 1301 00b2 02DD     		ble	.L91
 252:../../libDaisy//src/hid/disp/display.h ****             }
 1302              		.loc 12 252 20 view .LVU293
 1303 00b4 019C     		ldr	r4, [sp, #4]
 1304              	.LVL96:
 251:../../libDaisy//src/hid/disp/display.h ****                 y1 += signY;
 1305              		.loc 12 251 23 view .LVU294
 1306 00b6 AE44     		add	lr, lr, r5
 1307              	.LVL97:
 252:../../libDaisy//src/hid/disp/display.h ****             }
 1308              		.loc 12 252 20 view .LVU295
 1309 00b8 2244     		add	r2, r2, r4
 1310              	.LVL98:
 1311              	.L91:
 239:../../libDaisy//src/hid/disp/display.h ****         {
 1312              		.loc 12 239 26 is_stmt 1 view .LVU296
 1313 00ba 9942     		cmp	r1, r3
 1314 00bc D9D1     		bne	.L98
 239:../../libDaisy//src/hid/disp/display.h ****         {
 1315              		.loc 12 239 26 is_stmt 0 view .LVU297
 1316 00be 9642     		cmp	r6, r2
 1317 00c0 D7D1     		bne	.L98
 1318              	.LVL99:
 1319              	.L81:
 255:../../libDaisy//src/hid/disp/display.h **** 
 1320              		.loc 12 255 5 view .LVU298
 1321 00c2 03B0     		add	sp, sp, #12
 1322              		.cfi_remember_state
 1323              		.cfi_def_cfa_offset 36
 1324              		@ sp needed
 1325 00c4 BDE8F08F 		pop	{r4, r5, r6, r7, r8, r9, r10, fp, pc}
 1326              	.LVL100:
 1327              	.L89:
 1328              		.cfi_restore_state
 1329              	.LBB749:
 1330              	.LBB748:
ARM GAS  /var/folders/g0/l1whnkgn26zgpvrkcv2dxrg40000gn/T//ccwTptqb.s 			page 53


 1331              	.LBB747:
 1332              	.LBB745:
 1333              	.LBI745:
 352:../../libDaisy//src/dev/oled_ssd130x.h ****     {
 1334              		.loc 11 352 10 is_stmt 1 view .LVU299
 1335              	.LBB746:
 359:../../libDaisy//src/dev/oled_ssd130x.h ****     }
 1336              		.loc 11 359 42 is_stmt 0 view .LVU300
 1337 00c8 2BEA0C0B 		bic	fp, fp, ip
 1338 00cc 84F810B0 		strb	fp, [r4, #16]
 1339              	.LVL101:
 359:../../libDaisy//src/dev/oled_ssd130x.h ****     }
 1340              		.loc 11 359 42 view .LVU301
 1341 00d0 E6E7     		b	.L88
 1342              	.LVL102:
 1343              	.L83:
 359:../../libDaisy//src/dev/oled_ssd130x.h ****     }
 1344              		.loc 11 359 42 view .LVU302
 1345              	.LBE746:
 1346              	.LBE745:
 1347              	.LBE747:
 1348              	.LBE748:
 1349              	.LBE749:
 1350              	.LBB750:
  42:../../libDaisy//src/hid/disp/oled_display.h ****     {
 1351              		.loc 10 42 10 is_stmt 1 view .LVU303
 1352              	.LBB738:
 352:../../libDaisy//src/dev/oled_ssd130x.h ****     {
 1353              		.loc 11 352 10 view .LVU304
 1354              	.LBE738:
 1355              	.LBE750:
 230:../../libDaisy//src/hid/disp/display.h ****         int_fast16_t error  = deltaX - deltaY;
 1356              		.loc 12 230 42 is_stmt 0 discriminator 1 view .LVU305
 1357 00d2 0124     		movs	r4, #1
 1358              	.LBB751:
 1359              	.LBB739:
 1360              	.LBB735:
 354:../../libDaisy//src/dev/oled_ssd130x.h ****             return;
 1361              		.loc 11 354 9 view .LVU306
 1362 00d4 3F2E     		cmp	r6, #63
 1363              	.LBE735:
 1364              	.LBE739:
 1365              	.LBE751:
 230:../../libDaisy//src/hid/disp/display.h ****         int_fast16_t error  = deltaX - deltaY;
 1366              		.loc 12 230 42 discriminator 1 view .LVU307
 1367 00d6 0194     		str	r4, [sp, #4]
 1368              	.LBB752:
 1369              	.LBB740:
 1370              	.LBB736:
 354:../../libDaisy//src/dev/oled_ssd130x.h ****             return;
 1371              		.loc 11 354 9 view .LVU308
 1372 00d8 C9D8     		bhi	.L87
 1373 00da 7F2B     		cmp	r3, #127
 1374 00dc B2D9     		bls	.L94
 1375 00de C6E7     		b	.L87
 1376              	.LVL103:
 1377              	.L85:
ARM GAS  /var/folders/g0/l1whnkgn26zgpvrkcv2dxrg40000gn/T//ccwTptqb.s 			page 54


 1378              	.LBB731:
 1379              	.LBI731:
 352:../../libDaisy//src/dev/oled_ssd130x.h ****     {
 1380              		.loc 11 352 10 is_stmt 1 view .LVU309
 1381              	.LBB732:
 359:../../libDaisy//src/dev/oled_ssd130x.h ****     }
 1382              		.loc 11 359 42 is_stmt 0 view .LVU310
 1383 00e0 27EA0C07 		bic	r7, r7, ip
 1384              	.LBE732:
 1385              	.LBE731:
 1386              	.LBE736:
 1387              	.LBE740:
 1388              	.LBE752:
 239:../../libDaisy//src/hid/disp/display.h ****         {
 1389              		.loc 12 239 26 view .LVU311
 1390 00e4 8B42     		cmp	r3, r1
 1391              	.LBB753:
 1392              	.LBB741:
 1393              	.LBB737:
 1394              	.LBB734:
 1395              	.LBB733:
 359:../../libDaisy//src/dev/oled_ssd130x.h ****     }
 1396              		.loc 11 359 42 view .LVU312
 1397 00e6 2774     		strb	r7, [r4, #16]
 1398              	.LVL104:
 359:../../libDaisy//src/dev/oled_ssd130x.h ****     }
 1399              		.loc 11 359 42 view .LVU313
 1400              	.LBE733:
 1401              	.LBE734:
 1402              	.LBE737:
 1403              	.LBE741:
 1404              	.LBE753:
 239:../../libDaisy//src/hid/disp/display.h ****         {
 1405              		.loc 12 239 26 is_stmt 1 view .LVU314
 1406 00e8 BFD0     		beq	.L100
 1407 00ea C0E7     		b	.L87
 1408              		.cfi_endproc
 1409              	.LFE5479:
 1411              		.section	.text._ZN5daisy25OneBitGraphicsDisplayImplINS_11OledDisplayINS_13SSD130xDriverILj128ELj64
 1412              		.align	1
 1413              		.p2align 2,,3
 1414              		.weak	_ZN5daisy25OneBitGraphicsDisplayImplINS_11OledDisplayINS_13SSD130xDriverILj128ELj64ENS_19SSD
 1415              		.syntax unified
 1416              		.thumb
 1417              		.thumb_func
 1419              	_ZN5daisy25OneBitGraphicsDisplayImplINS_11OledDisplayINS_13SSD130xDriverILj128ELj64ENS_19SSD130xI2C
 1420              	.LVL105:
 1421              	.LFB5481:
 283:../../libDaisy//src/hid/disp/display.h ****                  uint_fast8_t y,
 1422              		.loc 12 283 10 view -0
 1423              		.cfi_startproc
 1424              		@ args = 12, pretend = 0, frame = 8
 1425              		@ frame_needed = 0, uses_anonymous_args = 0
 283:../../libDaisy//src/hid/disp/display.h ****                  uint_fast8_t y,
 1426              		.loc 12 283 10 is_stmt 0 view .LVU316
 1427 0000 2DE9F04F 		push	{r4, r5, r6, r7, r8, r9, r10, fp, lr}
 1428              		.cfi_def_cfa_offset 36
ARM GAS  /var/folders/g0/l1whnkgn26zgpvrkcv2dxrg40000gn/T//ccwTptqb.s 			page 55


 1429              		.cfi_offset 4, -36
 1430              		.cfi_offset 5, -32
 1431              		.cfi_offset 6, -28
 1432              		.cfi_offset 7, -24
 1433              		.cfi_offset 8, -20
 1434              		.cfi_offset 9, -16
 1435              		.cfi_offset 10, -12
 1436              		.cfi_offset 11, -8
 1437              		.cfi_offset 14, -4
 1438 0004 2DED068B 		vpush.64	{d8, d9, d10}
 1439              		.cfi_def_cfa_offset 60
 1440              		.cfi_offset 80, -60
 1441              		.cfi_offset 81, -56
 1442              		.cfi_offset 82, -52
 1443              		.cfi_offset 83, -48
 1444              		.cfi_offset 84, -44
 1445              		.cfi_offset 85, -40
 1446 0008 83B0     		sub	sp, sp, #12
 1447              		.cfi_def_cfa_offset 72
 283:../../libDaisy//src/hid/disp/display.h ****                  uint_fast8_t y,
 1448              		.loc 12 283 10 view .LVU317
 1449 000a 1646     		mov	r6, r2
 1450 000c 9846     		mov	r8, r3
 1451 000e 0D46     		mov	r5, r1
 1452 0010 9DF85070 		ldrb	r7, [sp, #80]	@ zero_extendqisi2
 1453 0014 0190     		str	r0, [sp, #4]
 308:../../libDaisy//src/hid/disp/display.h ****             sweep = -sweep;
 1454              		.loc 12 308 25 view .LVU318
 1455 0016 DDE91223 		ldrd	r2, r3, [sp, #72]
 1456              	.LVL106:
 308:../../libDaisy//src/hid/disp/display.h ****             sweep = -sweep;
 1457              		.loc 12 308 25 view .LVU319
 1458 001a 1344     		add	r3, r3, r2
 306:../../libDaisy//src/hid/disp/display.h ****         {
 1459              		.loc 12 306 9 view .LVU320
 1460 001c 139A     		ldr	r2, [sp, #76]
 1461 001e 002A     		cmp	r2, #0
 1462 0020 04DA     		bge	.L102
 1463              	.LVL107:
 309:../../libDaisy//src/hid/disp/display.h ****         }
 1464              		.loc 12 309 19 view .LVU321
 1465 0022 5242     		rsbs	r2, r2, #0
 1466 0024 1392     		str	r2, [sp, #76]
 1467              	.LVL108:
 309:../../libDaisy//src/hid/disp/display.h ****         }
 1468              		.loc 12 309 19 view .LVU322
 1469 0026 129A     		ldr	r2, [sp, #72]
 1470              	.LVL109:
 308:../../libDaisy//src/hid/disp/display.h ****             sweep = -sweep;
 1471              		.loc 12 308 25 view .LVU323
 1472 0028 1293     		str	r3, [sp, #72]
 1473 002a 1346     		mov	r3, r2
 1474              	.LVL110:
 1475              	.L102:
 313:../../libDaisy//src/hid/disp/display.h **** 
 1476              		.loc 12 313 27 view .LVU324
 1477 002c 07EE903A 		vmov	s15, r3	@ int
ARM GAS  /var/folders/g0/l1whnkgn26zgpvrkcv2dxrg40000gn/T//ccwTptqb.s 			page 56


 1478 0030 B8EEE76B 		vcvt.f64.s32	d6, s15
 312:../../libDaisy//src/hid/disp/display.h ****         end_angle_rad   = deg2rad(start_angle + sweep);
 1479              		.loc 12 312 27 view .LVU325
 1480 0034 DDED127A 		vldr.32	s15, [sp, #72]	@ int
 1481 0038 9FEDD15B 		vldr.64	d5, .L178
 1482 003c B8EEE77B 		vcvt.f64.s32	d7, s15
 1483 0040 9FEDD14B 		vldr.64	d4, .L178+8
 1484 0044 27EE057B 		vmul.f64	d7, d7, d5
 313:../../libDaisy//src/hid/disp/display.h **** 
 1485              		.loc 12 313 27 view .LVU326
 1486 0048 26EE056B 		vmul.f64	d6, d6, d5
 312:../../libDaisy//src/hid/disp/display.h ****         end_angle_rad   = deg2rad(start_angle + sweep);
 1487              		.loc 12 312 27 view .LVU327
 1488 004c 87EE040B 		vdiv.f64	d0, d7, d4
 313:../../libDaisy//src/hid/disp/display.h **** 
 1489              		.loc 12 313 27 view .LVU328
 1490 0050 86EE04AB 		vdiv.f64	d10, d6, d4
 312:../../libDaisy//src/hid/disp/display.h ****         end_angle_rad   = deg2rad(start_angle + sweep);
 1491              		.loc 12 312 25 view .LVU329
 1492 0054 F7EEC08B 		vcvt.f32.f64	s17, d0
 1493              	.LVL111:
 1494              	.LBB786:
 1495              	.LBB787:
 1496              		.file 13 "/Applications/ArmGNUToolchain/13.2.Rel1/arm-none-eabi/arm-none-eabi/include/c++/13.2.1/c
   1:/Applications/ArmGNUToolchain/13.2.Rel1/arm-none-eabi/arm-none-eabi/include/c++/13.2.1/cmath **** // -*- C++ -*- C forwarding header.
   2:/Applications/ArmGNUToolchain/13.2.Rel1/arm-none-eabi/arm-none-eabi/include/c++/13.2.1/cmath **** 
   3:/Applications/ArmGNUToolchain/13.2.Rel1/arm-none-eabi/arm-none-eabi/include/c++/13.2.1/cmath **** // Copyright (C) 1997-2023 Free Software Foundation, Inc.
   4:/Applications/ArmGNUToolchain/13.2.Rel1/arm-none-eabi/arm-none-eabi/include/c++/13.2.1/cmath **** //
   5:/Applications/ArmGNUToolchain/13.2.Rel1/arm-none-eabi/arm-none-eabi/include/c++/13.2.1/cmath **** // This file is part of the GNU ISO C++ Library.  This library is free
   6:/Applications/ArmGNUToolchain/13.2.Rel1/arm-none-eabi/arm-none-eabi/include/c++/13.2.1/cmath **** // software; you can redistribute it and/or modify it under the
   7:/Applications/ArmGNUToolchain/13.2.Rel1/arm-none-eabi/arm-none-eabi/include/c++/13.2.1/cmath **** // terms of the GNU General Public License as published by the
   8:/Applications/ArmGNUToolchain/13.2.Rel1/arm-none-eabi/arm-none-eabi/include/c++/13.2.1/cmath **** // Free Software Foundation; either version 3, or (at your option)
   9:/Applications/ArmGNUToolchain/13.2.Rel1/arm-none-eabi/arm-none-eabi/include/c++/13.2.1/cmath **** // any later version.
  10:/Applications/ArmGNUToolchain/13.2.Rel1/arm-none-eabi/arm-none-eabi/include/c++/13.2.1/cmath **** 
  11:/Applications/ArmGNUToolchain/13.2.Rel1/arm-none-eabi/arm-none-eabi/include/c++/13.2.1/cmath **** // This library is distributed in the hope that it will be useful,
  12:/Applications/ArmGNUToolchain/13.2.Rel1/arm-none-eabi/arm-none-eabi/include/c++/13.2.1/cmath **** // but WITHOUT ANY WARRANTY; without even the implied warranty of
  13:/Applications/ArmGNUToolchain/13.2.Rel1/arm-none-eabi/arm-none-eabi/include/c++/13.2.1/cmath **** // MERCHANTABILITY or FITNESS FOR A PARTICULAR PURPOSE.  See the
  14:/Applications/ArmGNUToolchain/13.2.Rel1/arm-none-eabi/arm-none-eabi/include/c++/13.2.1/cmath **** // GNU General Public License for more details.
  15:/Applications/ArmGNUToolchain/13.2.Rel1/arm-none-eabi/arm-none-eabi/include/c++/13.2.1/cmath **** 
  16:/Applications/ArmGNUToolchain/13.2.Rel1/arm-none-eabi/arm-none-eabi/include/c++/13.2.1/cmath **** // Under Section 7 of GPL version 3, you are granted additional
  17:/Applications/ArmGNUToolchain/13.2.Rel1/arm-none-eabi/arm-none-eabi/include/c++/13.2.1/cmath **** // permissions described in the GCC Runtime Library Exception, version
  18:/Applications/ArmGNUToolchain/13.2.Rel1/arm-none-eabi/arm-none-eabi/include/c++/13.2.1/cmath **** // 3.1, as published by the Free Software Foundation.
  19:/Applications/ArmGNUToolchain/13.2.Rel1/arm-none-eabi/arm-none-eabi/include/c++/13.2.1/cmath **** 
  20:/Applications/ArmGNUToolchain/13.2.Rel1/arm-none-eabi/arm-none-eabi/include/c++/13.2.1/cmath **** // You should have received a copy of the GNU General Public License and
  21:/Applications/ArmGNUToolchain/13.2.Rel1/arm-none-eabi/arm-none-eabi/include/c++/13.2.1/cmath **** // a copy of the GCC Runtime Library Exception along with this program;
  22:/Applications/ArmGNUToolchain/13.2.Rel1/arm-none-eabi/arm-none-eabi/include/c++/13.2.1/cmath **** // see the files COPYING3 and COPYING.RUNTIME respectively.  If not, see
  23:/Applications/ArmGNUToolchain/13.2.Rel1/arm-none-eabi/arm-none-eabi/include/c++/13.2.1/cmath **** // <http://www.gnu.org/licenses/>.
  24:/Applications/ArmGNUToolchain/13.2.Rel1/arm-none-eabi/arm-none-eabi/include/c++/13.2.1/cmath **** 
  25:/Applications/ArmGNUToolchain/13.2.Rel1/arm-none-eabi/arm-none-eabi/include/c++/13.2.1/cmath **** /** @file include/cmath
  26:/Applications/ArmGNUToolchain/13.2.Rel1/arm-none-eabi/arm-none-eabi/include/c++/13.2.1/cmath ****  *  This is a Standard C++ Library file.  You should @c \#include this file
  27:/Applications/ArmGNUToolchain/13.2.Rel1/arm-none-eabi/arm-none-eabi/include/c++/13.2.1/cmath ****  *  in your programs, rather than any of the @a *.h implementation files.
  28:/Applications/ArmGNUToolchain/13.2.Rel1/arm-none-eabi/arm-none-eabi/include/c++/13.2.1/cmath ****  *
  29:/Applications/ArmGNUToolchain/13.2.Rel1/arm-none-eabi/arm-none-eabi/include/c++/13.2.1/cmath ****  *  This is the C++ version of the Standard C Library header @c math.h,
  30:/Applications/ArmGNUToolchain/13.2.Rel1/arm-none-eabi/arm-none-eabi/include/c++/13.2.1/cmath ****  *  and its contents are (mostly) the same as that header, but are all
  31:/Applications/ArmGNUToolchain/13.2.Rel1/arm-none-eabi/arm-none-eabi/include/c++/13.2.1/cmath ****  *  contained in the namespace @c std (except for names which are defined
  32:/Applications/ArmGNUToolchain/13.2.Rel1/arm-none-eabi/arm-none-eabi/include/c++/13.2.1/cmath ****  *  as macros in C).
  33:/Applications/ArmGNUToolchain/13.2.Rel1/arm-none-eabi/arm-none-eabi/include/c++/13.2.1/cmath ****  */
ARM GAS  /var/folders/g0/l1whnkgn26zgpvrkcv2dxrg40000gn/T//ccwTptqb.s 			page 57


  34:/Applications/ArmGNUToolchain/13.2.Rel1/arm-none-eabi/arm-none-eabi/include/c++/13.2.1/cmath **** 
  35:/Applications/ArmGNUToolchain/13.2.Rel1/arm-none-eabi/arm-none-eabi/include/c++/13.2.1/cmath **** //
  36:/Applications/ArmGNUToolchain/13.2.Rel1/arm-none-eabi/arm-none-eabi/include/c++/13.2.1/cmath **** // ISO C++ 14882: 26.5  C library
  37:/Applications/ArmGNUToolchain/13.2.Rel1/arm-none-eabi/arm-none-eabi/include/c++/13.2.1/cmath **** //
  38:/Applications/ArmGNUToolchain/13.2.Rel1/arm-none-eabi/arm-none-eabi/include/c++/13.2.1/cmath **** 
  39:/Applications/ArmGNUToolchain/13.2.Rel1/arm-none-eabi/arm-none-eabi/include/c++/13.2.1/cmath **** #pragma GCC system_header
  40:/Applications/ArmGNUToolchain/13.2.Rel1/arm-none-eabi/arm-none-eabi/include/c++/13.2.1/cmath **** 
  41:/Applications/ArmGNUToolchain/13.2.Rel1/arm-none-eabi/arm-none-eabi/include/c++/13.2.1/cmath **** #include <bits/requires_hosted.h>
  42:/Applications/ArmGNUToolchain/13.2.Rel1/arm-none-eabi/arm-none-eabi/include/c++/13.2.1/cmath **** 
  43:/Applications/ArmGNUToolchain/13.2.Rel1/arm-none-eabi/arm-none-eabi/include/c++/13.2.1/cmath **** #include <bits/c++config.h>
  44:/Applications/ArmGNUToolchain/13.2.Rel1/arm-none-eabi/arm-none-eabi/include/c++/13.2.1/cmath **** #include <bits/cpp_type_traits.h>
  45:/Applications/ArmGNUToolchain/13.2.Rel1/arm-none-eabi/arm-none-eabi/include/c++/13.2.1/cmath **** #include <ext/type_traits.h>
  46:/Applications/ArmGNUToolchain/13.2.Rel1/arm-none-eabi/arm-none-eabi/include/c++/13.2.1/cmath **** #define _GLIBCXX_INCLUDE_NEXT_C_HEADERS
  47:/Applications/ArmGNUToolchain/13.2.Rel1/arm-none-eabi/arm-none-eabi/include/c++/13.2.1/cmath **** #include_next <math.h>
  48:/Applications/ArmGNUToolchain/13.2.Rel1/arm-none-eabi/arm-none-eabi/include/c++/13.2.1/cmath **** #undef _GLIBCXX_INCLUDE_NEXT_C_HEADERS
  49:/Applications/ArmGNUToolchain/13.2.Rel1/arm-none-eabi/arm-none-eabi/include/c++/13.2.1/cmath **** #include <bits/std_abs.h>
  50:/Applications/ArmGNUToolchain/13.2.Rel1/arm-none-eabi/arm-none-eabi/include/c++/13.2.1/cmath **** 
  51:/Applications/ArmGNUToolchain/13.2.Rel1/arm-none-eabi/arm-none-eabi/include/c++/13.2.1/cmath **** #ifndef _GLIBCXX_CMATH
  52:/Applications/ArmGNUToolchain/13.2.Rel1/arm-none-eabi/arm-none-eabi/include/c++/13.2.1/cmath **** #define _GLIBCXX_CMATH 1
  53:/Applications/ArmGNUToolchain/13.2.Rel1/arm-none-eabi/arm-none-eabi/include/c++/13.2.1/cmath **** 
  54:/Applications/ArmGNUToolchain/13.2.Rel1/arm-none-eabi/arm-none-eabi/include/c++/13.2.1/cmath **** // Get rid of those macros defined in <math.h> in lieu of real functions.
  55:/Applications/ArmGNUToolchain/13.2.Rel1/arm-none-eabi/arm-none-eabi/include/c++/13.2.1/cmath **** #undef div
  56:/Applications/ArmGNUToolchain/13.2.Rel1/arm-none-eabi/arm-none-eabi/include/c++/13.2.1/cmath **** #undef acos
  57:/Applications/ArmGNUToolchain/13.2.Rel1/arm-none-eabi/arm-none-eabi/include/c++/13.2.1/cmath **** #undef asin
  58:/Applications/ArmGNUToolchain/13.2.Rel1/arm-none-eabi/arm-none-eabi/include/c++/13.2.1/cmath **** #undef atan
  59:/Applications/ArmGNUToolchain/13.2.Rel1/arm-none-eabi/arm-none-eabi/include/c++/13.2.1/cmath **** #undef atan2
  60:/Applications/ArmGNUToolchain/13.2.Rel1/arm-none-eabi/arm-none-eabi/include/c++/13.2.1/cmath **** #undef ceil
  61:/Applications/ArmGNUToolchain/13.2.Rel1/arm-none-eabi/arm-none-eabi/include/c++/13.2.1/cmath **** #undef cos
  62:/Applications/ArmGNUToolchain/13.2.Rel1/arm-none-eabi/arm-none-eabi/include/c++/13.2.1/cmath **** #undef cosh
  63:/Applications/ArmGNUToolchain/13.2.Rel1/arm-none-eabi/arm-none-eabi/include/c++/13.2.1/cmath **** #undef exp
  64:/Applications/ArmGNUToolchain/13.2.Rel1/arm-none-eabi/arm-none-eabi/include/c++/13.2.1/cmath **** #undef fabs
  65:/Applications/ArmGNUToolchain/13.2.Rel1/arm-none-eabi/arm-none-eabi/include/c++/13.2.1/cmath **** #undef floor
  66:/Applications/ArmGNUToolchain/13.2.Rel1/arm-none-eabi/arm-none-eabi/include/c++/13.2.1/cmath **** #undef fmod
  67:/Applications/ArmGNUToolchain/13.2.Rel1/arm-none-eabi/arm-none-eabi/include/c++/13.2.1/cmath **** #undef frexp
  68:/Applications/ArmGNUToolchain/13.2.Rel1/arm-none-eabi/arm-none-eabi/include/c++/13.2.1/cmath **** #undef ldexp
  69:/Applications/ArmGNUToolchain/13.2.Rel1/arm-none-eabi/arm-none-eabi/include/c++/13.2.1/cmath **** #undef log
  70:/Applications/ArmGNUToolchain/13.2.Rel1/arm-none-eabi/arm-none-eabi/include/c++/13.2.1/cmath **** #undef log10
  71:/Applications/ArmGNUToolchain/13.2.Rel1/arm-none-eabi/arm-none-eabi/include/c++/13.2.1/cmath **** #undef modf
  72:/Applications/ArmGNUToolchain/13.2.Rel1/arm-none-eabi/arm-none-eabi/include/c++/13.2.1/cmath **** #undef pow
  73:/Applications/ArmGNUToolchain/13.2.Rel1/arm-none-eabi/arm-none-eabi/include/c++/13.2.1/cmath **** #undef sin
  74:/Applications/ArmGNUToolchain/13.2.Rel1/arm-none-eabi/arm-none-eabi/include/c++/13.2.1/cmath **** #undef sinh
  75:/Applications/ArmGNUToolchain/13.2.Rel1/arm-none-eabi/arm-none-eabi/include/c++/13.2.1/cmath **** #undef sqrt
  76:/Applications/ArmGNUToolchain/13.2.Rel1/arm-none-eabi/arm-none-eabi/include/c++/13.2.1/cmath **** #undef tan
  77:/Applications/ArmGNUToolchain/13.2.Rel1/arm-none-eabi/arm-none-eabi/include/c++/13.2.1/cmath **** #undef tanh
  78:/Applications/ArmGNUToolchain/13.2.Rel1/arm-none-eabi/arm-none-eabi/include/c++/13.2.1/cmath **** 
  79:/Applications/ArmGNUToolchain/13.2.Rel1/arm-none-eabi/arm-none-eabi/include/c++/13.2.1/cmath **** extern "C++"
  80:/Applications/ArmGNUToolchain/13.2.Rel1/arm-none-eabi/arm-none-eabi/include/c++/13.2.1/cmath **** {
  81:/Applications/ArmGNUToolchain/13.2.Rel1/arm-none-eabi/arm-none-eabi/include/c++/13.2.1/cmath **** namespace std _GLIBCXX_VISIBILITY(default)
  82:/Applications/ArmGNUToolchain/13.2.Rel1/arm-none-eabi/arm-none-eabi/include/c++/13.2.1/cmath **** {
  83:/Applications/ArmGNUToolchain/13.2.Rel1/arm-none-eabi/arm-none-eabi/include/c++/13.2.1/cmath **** _GLIBCXX_BEGIN_NAMESPACE_VERSION
  84:/Applications/ArmGNUToolchain/13.2.Rel1/arm-none-eabi/arm-none-eabi/include/c++/13.2.1/cmath **** 
  85:/Applications/ArmGNUToolchain/13.2.Rel1/arm-none-eabi/arm-none-eabi/include/c++/13.2.1/cmath ****   using ::acos;
  86:/Applications/ArmGNUToolchain/13.2.Rel1/arm-none-eabi/arm-none-eabi/include/c++/13.2.1/cmath **** 
  87:/Applications/ArmGNUToolchain/13.2.Rel1/arm-none-eabi/arm-none-eabi/include/c++/13.2.1/cmath **** #ifndef __CORRECT_ISO_CPP_MATH_H_PROTO
  88:/Applications/ArmGNUToolchain/13.2.Rel1/arm-none-eabi/arm-none-eabi/include/c++/13.2.1/cmath ****   inline _GLIBCXX_CONSTEXPR float
  89:/Applications/ArmGNUToolchain/13.2.Rel1/arm-none-eabi/arm-none-eabi/include/c++/13.2.1/cmath ****   acos(float __x)
  90:/Applications/ArmGNUToolchain/13.2.Rel1/arm-none-eabi/arm-none-eabi/include/c++/13.2.1/cmath ****   { return __builtin_acosf(__x); }
ARM GAS  /var/folders/g0/l1whnkgn26zgpvrkcv2dxrg40000gn/T//ccwTptqb.s 			page 58


  91:/Applications/ArmGNUToolchain/13.2.Rel1/arm-none-eabi/arm-none-eabi/include/c++/13.2.1/cmath **** 
  92:/Applications/ArmGNUToolchain/13.2.Rel1/arm-none-eabi/arm-none-eabi/include/c++/13.2.1/cmath ****   inline _GLIBCXX_CONSTEXPR long double
  93:/Applications/ArmGNUToolchain/13.2.Rel1/arm-none-eabi/arm-none-eabi/include/c++/13.2.1/cmath ****   acos(long double __x)
  94:/Applications/ArmGNUToolchain/13.2.Rel1/arm-none-eabi/arm-none-eabi/include/c++/13.2.1/cmath ****   { return __builtin_acosl(__x); }
  95:/Applications/ArmGNUToolchain/13.2.Rel1/arm-none-eabi/arm-none-eabi/include/c++/13.2.1/cmath **** #endif
  96:/Applications/ArmGNUToolchain/13.2.Rel1/arm-none-eabi/arm-none-eabi/include/c++/13.2.1/cmath **** 
  97:/Applications/ArmGNUToolchain/13.2.Rel1/arm-none-eabi/arm-none-eabi/include/c++/13.2.1/cmath ****   template<typename _Tp>
  98:/Applications/ArmGNUToolchain/13.2.Rel1/arm-none-eabi/arm-none-eabi/include/c++/13.2.1/cmath ****     inline _GLIBCXX_CONSTEXPR
  99:/Applications/ArmGNUToolchain/13.2.Rel1/arm-none-eabi/arm-none-eabi/include/c++/13.2.1/cmath ****     typename __gnu_cxx::__enable_if<__is_integer<_Tp>::__value, 
 100:/Applications/ArmGNUToolchain/13.2.Rel1/arm-none-eabi/arm-none-eabi/include/c++/13.2.1/cmath ****                                     double>::__type
 101:/Applications/ArmGNUToolchain/13.2.Rel1/arm-none-eabi/arm-none-eabi/include/c++/13.2.1/cmath ****     acos(_Tp __x)
 102:/Applications/ArmGNUToolchain/13.2.Rel1/arm-none-eabi/arm-none-eabi/include/c++/13.2.1/cmath ****     { return __builtin_acos(__x); }
 103:/Applications/ArmGNUToolchain/13.2.Rel1/arm-none-eabi/arm-none-eabi/include/c++/13.2.1/cmath **** 
 104:/Applications/ArmGNUToolchain/13.2.Rel1/arm-none-eabi/arm-none-eabi/include/c++/13.2.1/cmath ****   using ::asin;
 105:/Applications/ArmGNUToolchain/13.2.Rel1/arm-none-eabi/arm-none-eabi/include/c++/13.2.1/cmath **** 
 106:/Applications/ArmGNUToolchain/13.2.Rel1/arm-none-eabi/arm-none-eabi/include/c++/13.2.1/cmath **** #ifndef __CORRECT_ISO_CPP_MATH_H_PROTO
 107:/Applications/ArmGNUToolchain/13.2.Rel1/arm-none-eabi/arm-none-eabi/include/c++/13.2.1/cmath ****   inline _GLIBCXX_CONSTEXPR float
 108:/Applications/ArmGNUToolchain/13.2.Rel1/arm-none-eabi/arm-none-eabi/include/c++/13.2.1/cmath ****   asin(float __x)
 109:/Applications/ArmGNUToolchain/13.2.Rel1/arm-none-eabi/arm-none-eabi/include/c++/13.2.1/cmath ****   { return __builtin_asinf(__x); }
 110:/Applications/ArmGNUToolchain/13.2.Rel1/arm-none-eabi/arm-none-eabi/include/c++/13.2.1/cmath **** 
 111:/Applications/ArmGNUToolchain/13.2.Rel1/arm-none-eabi/arm-none-eabi/include/c++/13.2.1/cmath ****   inline _GLIBCXX_CONSTEXPR long double
 112:/Applications/ArmGNUToolchain/13.2.Rel1/arm-none-eabi/arm-none-eabi/include/c++/13.2.1/cmath ****   asin(long double __x)
 113:/Applications/ArmGNUToolchain/13.2.Rel1/arm-none-eabi/arm-none-eabi/include/c++/13.2.1/cmath ****   { return __builtin_asinl(__x); }
 114:/Applications/ArmGNUToolchain/13.2.Rel1/arm-none-eabi/arm-none-eabi/include/c++/13.2.1/cmath **** #endif
 115:/Applications/ArmGNUToolchain/13.2.Rel1/arm-none-eabi/arm-none-eabi/include/c++/13.2.1/cmath **** 
 116:/Applications/ArmGNUToolchain/13.2.Rel1/arm-none-eabi/arm-none-eabi/include/c++/13.2.1/cmath ****   template<typename _Tp>
 117:/Applications/ArmGNUToolchain/13.2.Rel1/arm-none-eabi/arm-none-eabi/include/c++/13.2.1/cmath ****     inline _GLIBCXX_CONSTEXPR
 118:/Applications/ArmGNUToolchain/13.2.Rel1/arm-none-eabi/arm-none-eabi/include/c++/13.2.1/cmath ****     typename __gnu_cxx::__enable_if<__is_integer<_Tp>::__value,
 119:/Applications/ArmGNUToolchain/13.2.Rel1/arm-none-eabi/arm-none-eabi/include/c++/13.2.1/cmath ****                                     double>::__type
 120:/Applications/ArmGNUToolchain/13.2.Rel1/arm-none-eabi/arm-none-eabi/include/c++/13.2.1/cmath ****     asin(_Tp __x)
 121:/Applications/ArmGNUToolchain/13.2.Rel1/arm-none-eabi/arm-none-eabi/include/c++/13.2.1/cmath ****     { return __builtin_asin(__x); }
 122:/Applications/ArmGNUToolchain/13.2.Rel1/arm-none-eabi/arm-none-eabi/include/c++/13.2.1/cmath **** 
 123:/Applications/ArmGNUToolchain/13.2.Rel1/arm-none-eabi/arm-none-eabi/include/c++/13.2.1/cmath ****   using ::atan;
 124:/Applications/ArmGNUToolchain/13.2.Rel1/arm-none-eabi/arm-none-eabi/include/c++/13.2.1/cmath **** 
 125:/Applications/ArmGNUToolchain/13.2.Rel1/arm-none-eabi/arm-none-eabi/include/c++/13.2.1/cmath **** #ifndef __CORRECT_ISO_CPP_MATH_H_PROTO
 126:/Applications/ArmGNUToolchain/13.2.Rel1/arm-none-eabi/arm-none-eabi/include/c++/13.2.1/cmath ****   inline _GLIBCXX_CONSTEXPR float
 127:/Applications/ArmGNUToolchain/13.2.Rel1/arm-none-eabi/arm-none-eabi/include/c++/13.2.1/cmath ****   atan(float __x)
 128:/Applications/ArmGNUToolchain/13.2.Rel1/arm-none-eabi/arm-none-eabi/include/c++/13.2.1/cmath ****   { return __builtin_atanf(__x); }
 129:/Applications/ArmGNUToolchain/13.2.Rel1/arm-none-eabi/arm-none-eabi/include/c++/13.2.1/cmath **** 
 130:/Applications/ArmGNUToolchain/13.2.Rel1/arm-none-eabi/arm-none-eabi/include/c++/13.2.1/cmath ****   inline _GLIBCXX_CONSTEXPR long double
 131:/Applications/ArmGNUToolchain/13.2.Rel1/arm-none-eabi/arm-none-eabi/include/c++/13.2.1/cmath ****   atan(long double __x)
 132:/Applications/ArmGNUToolchain/13.2.Rel1/arm-none-eabi/arm-none-eabi/include/c++/13.2.1/cmath ****   { return __builtin_atanl(__x); }
 133:/Applications/ArmGNUToolchain/13.2.Rel1/arm-none-eabi/arm-none-eabi/include/c++/13.2.1/cmath **** #endif
 134:/Applications/ArmGNUToolchain/13.2.Rel1/arm-none-eabi/arm-none-eabi/include/c++/13.2.1/cmath **** 
 135:/Applications/ArmGNUToolchain/13.2.Rel1/arm-none-eabi/arm-none-eabi/include/c++/13.2.1/cmath ****   template<typename _Tp>
 136:/Applications/ArmGNUToolchain/13.2.Rel1/arm-none-eabi/arm-none-eabi/include/c++/13.2.1/cmath ****     inline _GLIBCXX_CONSTEXPR
 137:/Applications/ArmGNUToolchain/13.2.Rel1/arm-none-eabi/arm-none-eabi/include/c++/13.2.1/cmath ****     typename __gnu_cxx::__enable_if<__is_integer<_Tp>::__value,
 138:/Applications/ArmGNUToolchain/13.2.Rel1/arm-none-eabi/arm-none-eabi/include/c++/13.2.1/cmath ****                                     double>::__type
 139:/Applications/ArmGNUToolchain/13.2.Rel1/arm-none-eabi/arm-none-eabi/include/c++/13.2.1/cmath ****     atan(_Tp __x)
 140:/Applications/ArmGNUToolchain/13.2.Rel1/arm-none-eabi/arm-none-eabi/include/c++/13.2.1/cmath ****     { return __builtin_atan(__x); }
 141:/Applications/ArmGNUToolchain/13.2.Rel1/arm-none-eabi/arm-none-eabi/include/c++/13.2.1/cmath **** 
 142:/Applications/ArmGNUToolchain/13.2.Rel1/arm-none-eabi/arm-none-eabi/include/c++/13.2.1/cmath ****   using ::atan2;
 143:/Applications/ArmGNUToolchain/13.2.Rel1/arm-none-eabi/arm-none-eabi/include/c++/13.2.1/cmath **** 
 144:/Applications/ArmGNUToolchain/13.2.Rel1/arm-none-eabi/arm-none-eabi/include/c++/13.2.1/cmath **** #ifndef __CORRECT_ISO_CPP_MATH_H_PROTO
 145:/Applications/ArmGNUToolchain/13.2.Rel1/arm-none-eabi/arm-none-eabi/include/c++/13.2.1/cmath ****   inline _GLIBCXX_CONSTEXPR float
 146:/Applications/ArmGNUToolchain/13.2.Rel1/arm-none-eabi/arm-none-eabi/include/c++/13.2.1/cmath ****   atan2(float __y, float __x)
 147:/Applications/ArmGNUToolchain/13.2.Rel1/arm-none-eabi/arm-none-eabi/include/c++/13.2.1/cmath ****   { return __builtin_atan2f(__y, __x); }
ARM GAS  /var/folders/g0/l1whnkgn26zgpvrkcv2dxrg40000gn/T//ccwTptqb.s 			page 59


 148:/Applications/ArmGNUToolchain/13.2.Rel1/arm-none-eabi/arm-none-eabi/include/c++/13.2.1/cmath **** 
 149:/Applications/ArmGNUToolchain/13.2.Rel1/arm-none-eabi/arm-none-eabi/include/c++/13.2.1/cmath ****   inline _GLIBCXX_CONSTEXPR long double
 150:/Applications/ArmGNUToolchain/13.2.Rel1/arm-none-eabi/arm-none-eabi/include/c++/13.2.1/cmath ****   atan2(long double __y, long double __x)
 151:/Applications/ArmGNUToolchain/13.2.Rel1/arm-none-eabi/arm-none-eabi/include/c++/13.2.1/cmath ****   { return __builtin_atan2l(__y, __x); }
 152:/Applications/ArmGNUToolchain/13.2.Rel1/arm-none-eabi/arm-none-eabi/include/c++/13.2.1/cmath **** #endif
 153:/Applications/ArmGNUToolchain/13.2.Rel1/arm-none-eabi/arm-none-eabi/include/c++/13.2.1/cmath **** 
 154:/Applications/ArmGNUToolchain/13.2.Rel1/arm-none-eabi/arm-none-eabi/include/c++/13.2.1/cmath ****   using ::ceil;
 155:/Applications/ArmGNUToolchain/13.2.Rel1/arm-none-eabi/arm-none-eabi/include/c++/13.2.1/cmath **** 
 156:/Applications/ArmGNUToolchain/13.2.Rel1/arm-none-eabi/arm-none-eabi/include/c++/13.2.1/cmath **** #ifndef __CORRECT_ISO_CPP_MATH_H_PROTO
 157:/Applications/ArmGNUToolchain/13.2.Rel1/arm-none-eabi/arm-none-eabi/include/c++/13.2.1/cmath ****   inline _GLIBCXX_CONSTEXPR float
 158:/Applications/ArmGNUToolchain/13.2.Rel1/arm-none-eabi/arm-none-eabi/include/c++/13.2.1/cmath ****   ceil(float __x)
 159:/Applications/ArmGNUToolchain/13.2.Rel1/arm-none-eabi/arm-none-eabi/include/c++/13.2.1/cmath ****   { return __builtin_ceilf(__x); }
 160:/Applications/ArmGNUToolchain/13.2.Rel1/arm-none-eabi/arm-none-eabi/include/c++/13.2.1/cmath **** 
 161:/Applications/ArmGNUToolchain/13.2.Rel1/arm-none-eabi/arm-none-eabi/include/c++/13.2.1/cmath ****   inline _GLIBCXX_CONSTEXPR long double
 162:/Applications/ArmGNUToolchain/13.2.Rel1/arm-none-eabi/arm-none-eabi/include/c++/13.2.1/cmath ****   ceil(long double __x)
 163:/Applications/ArmGNUToolchain/13.2.Rel1/arm-none-eabi/arm-none-eabi/include/c++/13.2.1/cmath ****   { return __builtin_ceill(__x); }
 164:/Applications/ArmGNUToolchain/13.2.Rel1/arm-none-eabi/arm-none-eabi/include/c++/13.2.1/cmath **** #endif
 165:/Applications/ArmGNUToolchain/13.2.Rel1/arm-none-eabi/arm-none-eabi/include/c++/13.2.1/cmath **** 
 166:/Applications/ArmGNUToolchain/13.2.Rel1/arm-none-eabi/arm-none-eabi/include/c++/13.2.1/cmath ****   template<typename _Tp>
 167:/Applications/ArmGNUToolchain/13.2.Rel1/arm-none-eabi/arm-none-eabi/include/c++/13.2.1/cmath ****     inline _GLIBCXX_CONSTEXPR
 168:/Applications/ArmGNUToolchain/13.2.Rel1/arm-none-eabi/arm-none-eabi/include/c++/13.2.1/cmath ****     typename __gnu_cxx::__enable_if<__is_integer<_Tp>::__value, 
 169:/Applications/ArmGNUToolchain/13.2.Rel1/arm-none-eabi/arm-none-eabi/include/c++/13.2.1/cmath ****                                     double>::__type
 170:/Applications/ArmGNUToolchain/13.2.Rel1/arm-none-eabi/arm-none-eabi/include/c++/13.2.1/cmath ****     ceil(_Tp __x)
 171:/Applications/ArmGNUToolchain/13.2.Rel1/arm-none-eabi/arm-none-eabi/include/c++/13.2.1/cmath ****     { return __builtin_ceil(__x); }
 172:/Applications/ArmGNUToolchain/13.2.Rel1/arm-none-eabi/arm-none-eabi/include/c++/13.2.1/cmath **** 
 173:/Applications/ArmGNUToolchain/13.2.Rel1/arm-none-eabi/arm-none-eabi/include/c++/13.2.1/cmath ****   using ::cos;
 174:/Applications/ArmGNUToolchain/13.2.Rel1/arm-none-eabi/arm-none-eabi/include/c++/13.2.1/cmath **** 
 175:/Applications/ArmGNUToolchain/13.2.Rel1/arm-none-eabi/arm-none-eabi/include/c++/13.2.1/cmath **** #ifndef __CORRECT_ISO_CPP_MATH_H_PROTO
 176:/Applications/ArmGNUToolchain/13.2.Rel1/arm-none-eabi/arm-none-eabi/include/c++/13.2.1/cmath ****   inline _GLIBCXX_CONSTEXPR float
 177:/Applications/ArmGNUToolchain/13.2.Rel1/arm-none-eabi/arm-none-eabi/include/c++/13.2.1/cmath ****   cos(float __x)
 178:/Applications/ArmGNUToolchain/13.2.Rel1/arm-none-eabi/arm-none-eabi/include/c++/13.2.1/cmath ****   { return __builtin_cosf(__x); }
 1497              		.loc 13 178 26 view .LVU330
 1498 0058 B0EE680A 		vmov.f32	s0, s17
 1499 005c FFF7FEFF 		bl	cosf
 1500              	.LVL112:
 1501              		.loc 13 178 26 view .LVU331
 1502              	.LBE787:
 1503              	.LBE786:
 313:../../libDaisy//src/hid/disp/display.h **** 
 1504              		.loc 12 313 25 view .LVU332
 1505 0060 B7EECAAB 		vcvt.f32.f64	s20, d10
 1506              	.LVL113:
 1507              	.LBB790:
 1508              	.LBI786:
 177:/Applications/ArmGNUToolchain/13.2.Rel1/arm-none-eabi/arm-none-eabi/include/c++/13.2.1/cmath ****   { return __builtin_cosf(__x); }
 1509              		.loc 13 177 3 is_stmt 1 view .LVU333
 1510              	.LBB788:
 1511              		.loc 13 178 5 view .LVU334
 1512              		.loc 13 178 5 is_stmt 0 view .LVU335
 1513              	.LBE788:
 1514              	.LBE790:
 315:../../libDaisy//src/hid/disp/display.h ****         start_y = -sin(start_angle_rad) * radius;
 1515              		.loc 12 315 17 discriminator 1 view .LVU336
 1516 0064 07EE908A 		vmov	s15, r8	@ int
 1517              	.LBB791:
 1518              	.LBB789:
 1519              		.loc 13 178 26 view .LVU337
ARM GAS  /var/folders/g0/l1whnkgn26zgpvrkcv2dxrg40000gn/T//ccwTptqb.s 			page 60


 1520 0068 B0EE408A 		vmov.f32	s16, s0
 1521              	.LBE789:
 1522              	.LBE791:
 1523              	.LBB792:
 1524              	.LBB793:
 179:/Applications/ArmGNUToolchain/13.2.Rel1/arm-none-eabi/arm-none-eabi/include/c++/13.2.1/cmath **** 
 180:/Applications/ArmGNUToolchain/13.2.Rel1/arm-none-eabi/arm-none-eabi/include/c++/13.2.1/cmath ****   inline _GLIBCXX_CONSTEXPR long double
 181:/Applications/ArmGNUToolchain/13.2.Rel1/arm-none-eabi/arm-none-eabi/include/c++/13.2.1/cmath ****   cos(long double __x)
 182:/Applications/ArmGNUToolchain/13.2.Rel1/arm-none-eabi/arm-none-eabi/include/c++/13.2.1/cmath ****   { return __builtin_cosl(__x); }
 183:/Applications/ArmGNUToolchain/13.2.Rel1/arm-none-eabi/arm-none-eabi/include/c++/13.2.1/cmath **** #endif
 184:/Applications/ArmGNUToolchain/13.2.Rel1/arm-none-eabi/arm-none-eabi/include/c++/13.2.1/cmath **** 
 185:/Applications/ArmGNUToolchain/13.2.Rel1/arm-none-eabi/arm-none-eabi/include/c++/13.2.1/cmath ****   template<typename _Tp>
 186:/Applications/ArmGNUToolchain/13.2.Rel1/arm-none-eabi/arm-none-eabi/include/c++/13.2.1/cmath ****     inline _GLIBCXX_CONSTEXPR
 187:/Applications/ArmGNUToolchain/13.2.Rel1/arm-none-eabi/arm-none-eabi/include/c++/13.2.1/cmath ****     typename __gnu_cxx::__enable_if<__is_integer<_Tp>::__value,
 188:/Applications/ArmGNUToolchain/13.2.Rel1/arm-none-eabi/arm-none-eabi/include/c++/13.2.1/cmath ****                                     double>::__type
 189:/Applications/ArmGNUToolchain/13.2.Rel1/arm-none-eabi/arm-none-eabi/include/c++/13.2.1/cmath ****     cos(_Tp __x)
 190:/Applications/ArmGNUToolchain/13.2.Rel1/arm-none-eabi/arm-none-eabi/include/c++/13.2.1/cmath ****     { return __builtin_cos(__x); }
 191:/Applications/ArmGNUToolchain/13.2.Rel1/arm-none-eabi/arm-none-eabi/include/c++/13.2.1/cmath **** 
 192:/Applications/ArmGNUToolchain/13.2.Rel1/arm-none-eabi/arm-none-eabi/include/c++/13.2.1/cmath ****   using ::cosh;
 193:/Applications/ArmGNUToolchain/13.2.Rel1/arm-none-eabi/arm-none-eabi/include/c++/13.2.1/cmath **** 
 194:/Applications/ArmGNUToolchain/13.2.Rel1/arm-none-eabi/arm-none-eabi/include/c++/13.2.1/cmath **** #ifndef __CORRECT_ISO_CPP_MATH_H_PROTO
 195:/Applications/ArmGNUToolchain/13.2.Rel1/arm-none-eabi/arm-none-eabi/include/c++/13.2.1/cmath ****   inline _GLIBCXX_CONSTEXPR float
 196:/Applications/ArmGNUToolchain/13.2.Rel1/arm-none-eabi/arm-none-eabi/include/c++/13.2.1/cmath ****   cosh(float __x)
 197:/Applications/ArmGNUToolchain/13.2.Rel1/arm-none-eabi/arm-none-eabi/include/c++/13.2.1/cmath ****   { return __builtin_coshf(__x); }
 198:/Applications/ArmGNUToolchain/13.2.Rel1/arm-none-eabi/arm-none-eabi/include/c++/13.2.1/cmath **** 
 199:/Applications/ArmGNUToolchain/13.2.Rel1/arm-none-eabi/arm-none-eabi/include/c++/13.2.1/cmath ****   inline _GLIBCXX_CONSTEXPR long double
 200:/Applications/ArmGNUToolchain/13.2.Rel1/arm-none-eabi/arm-none-eabi/include/c++/13.2.1/cmath ****   cosh(long double __x)
 201:/Applications/ArmGNUToolchain/13.2.Rel1/arm-none-eabi/arm-none-eabi/include/c++/13.2.1/cmath ****   { return __builtin_coshl(__x); }
 202:/Applications/ArmGNUToolchain/13.2.Rel1/arm-none-eabi/arm-none-eabi/include/c++/13.2.1/cmath **** #endif
 203:/Applications/ArmGNUToolchain/13.2.Rel1/arm-none-eabi/arm-none-eabi/include/c++/13.2.1/cmath **** 
 204:/Applications/ArmGNUToolchain/13.2.Rel1/arm-none-eabi/arm-none-eabi/include/c++/13.2.1/cmath ****   template<typename _Tp>
 205:/Applications/ArmGNUToolchain/13.2.Rel1/arm-none-eabi/arm-none-eabi/include/c++/13.2.1/cmath ****     inline _GLIBCXX_CONSTEXPR
 206:/Applications/ArmGNUToolchain/13.2.Rel1/arm-none-eabi/arm-none-eabi/include/c++/13.2.1/cmath ****     typename __gnu_cxx::__enable_if<__is_integer<_Tp>::__value,
 207:/Applications/ArmGNUToolchain/13.2.Rel1/arm-none-eabi/arm-none-eabi/include/c++/13.2.1/cmath ****                                     double>::__type
 208:/Applications/ArmGNUToolchain/13.2.Rel1/arm-none-eabi/arm-none-eabi/include/c++/13.2.1/cmath ****     cosh(_Tp __x)
 209:/Applications/ArmGNUToolchain/13.2.Rel1/arm-none-eabi/arm-none-eabi/include/c++/13.2.1/cmath ****     { return __builtin_cosh(__x); }
 210:/Applications/ArmGNUToolchain/13.2.Rel1/arm-none-eabi/arm-none-eabi/include/c++/13.2.1/cmath **** 
 211:/Applications/ArmGNUToolchain/13.2.Rel1/arm-none-eabi/arm-none-eabi/include/c++/13.2.1/cmath ****   using ::exp;
 212:/Applications/ArmGNUToolchain/13.2.Rel1/arm-none-eabi/arm-none-eabi/include/c++/13.2.1/cmath **** 
 213:/Applications/ArmGNUToolchain/13.2.Rel1/arm-none-eabi/arm-none-eabi/include/c++/13.2.1/cmath **** #ifndef __CORRECT_ISO_CPP_MATH_H_PROTO
 214:/Applications/ArmGNUToolchain/13.2.Rel1/arm-none-eabi/arm-none-eabi/include/c++/13.2.1/cmath ****   inline _GLIBCXX_CONSTEXPR float
 215:/Applications/ArmGNUToolchain/13.2.Rel1/arm-none-eabi/arm-none-eabi/include/c++/13.2.1/cmath ****   exp(float __x)
 216:/Applications/ArmGNUToolchain/13.2.Rel1/arm-none-eabi/arm-none-eabi/include/c++/13.2.1/cmath ****   { return __builtin_expf(__x); }
 217:/Applications/ArmGNUToolchain/13.2.Rel1/arm-none-eabi/arm-none-eabi/include/c++/13.2.1/cmath **** 
 218:/Applications/ArmGNUToolchain/13.2.Rel1/arm-none-eabi/arm-none-eabi/include/c++/13.2.1/cmath ****   inline _GLIBCXX_CONSTEXPR long double
 219:/Applications/ArmGNUToolchain/13.2.Rel1/arm-none-eabi/arm-none-eabi/include/c++/13.2.1/cmath ****   exp(long double __x)
 220:/Applications/ArmGNUToolchain/13.2.Rel1/arm-none-eabi/arm-none-eabi/include/c++/13.2.1/cmath ****   { return __builtin_expl(__x); }
 221:/Applications/ArmGNUToolchain/13.2.Rel1/arm-none-eabi/arm-none-eabi/include/c++/13.2.1/cmath **** #endif
 222:/Applications/ArmGNUToolchain/13.2.Rel1/arm-none-eabi/arm-none-eabi/include/c++/13.2.1/cmath **** 
 223:/Applications/ArmGNUToolchain/13.2.Rel1/arm-none-eabi/arm-none-eabi/include/c++/13.2.1/cmath ****   template<typename _Tp>
 224:/Applications/ArmGNUToolchain/13.2.Rel1/arm-none-eabi/arm-none-eabi/include/c++/13.2.1/cmath ****     inline _GLIBCXX_CONSTEXPR
 225:/Applications/ArmGNUToolchain/13.2.Rel1/arm-none-eabi/arm-none-eabi/include/c++/13.2.1/cmath ****     typename __gnu_cxx::__enable_if<__is_integer<_Tp>::__value,
 226:/Applications/ArmGNUToolchain/13.2.Rel1/arm-none-eabi/arm-none-eabi/include/c++/13.2.1/cmath ****                                     double>::__type
 227:/Applications/ArmGNUToolchain/13.2.Rel1/arm-none-eabi/arm-none-eabi/include/c++/13.2.1/cmath ****     exp(_Tp __x)
 228:/Applications/ArmGNUToolchain/13.2.Rel1/arm-none-eabi/arm-none-eabi/include/c++/13.2.1/cmath ****     { return __builtin_exp(__x); }
 229:/Applications/ArmGNUToolchain/13.2.Rel1/arm-none-eabi/arm-none-eabi/include/c++/13.2.1/cmath **** 
 230:/Applications/ArmGNUToolchain/13.2.Rel1/arm-none-eabi/arm-none-eabi/include/c++/13.2.1/cmath ****   using ::fabs;
ARM GAS  /var/folders/g0/l1whnkgn26zgpvrkcv2dxrg40000gn/T//ccwTptqb.s 			page 61


 231:/Applications/ArmGNUToolchain/13.2.Rel1/arm-none-eabi/arm-none-eabi/include/c++/13.2.1/cmath **** 
 232:/Applications/ArmGNUToolchain/13.2.Rel1/arm-none-eabi/arm-none-eabi/include/c++/13.2.1/cmath **** #ifndef __CORRECT_ISO_CPP_MATH_H_PROTO
 233:/Applications/ArmGNUToolchain/13.2.Rel1/arm-none-eabi/arm-none-eabi/include/c++/13.2.1/cmath ****   inline _GLIBCXX_CONSTEXPR float
 234:/Applications/ArmGNUToolchain/13.2.Rel1/arm-none-eabi/arm-none-eabi/include/c++/13.2.1/cmath ****   fabs(float __x)
 235:/Applications/ArmGNUToolchain/13.2.Rel1/arm-none-eabi/arm-none-eabi/include/c++/13.2.1/cmath ****   { return __builtin_fabsf(__x); }
 236:/Applications/ArmGNUToolchain/13.2.Rel1/arm-none-eabi/arm-none-eabi/include/c++/13.2.1/cmath **** 
 237:/Applications/ArmGNUToolchain/13.2.Rel1/arm-none-eabi/arm-none-eabi/include/c++/13.2.1/cmath ****   inline _GLIBCXX_CONSTEXPR long double
 238:/Applications/ArmGNUToolchain/13.2.Rel1/arm-none-eabi/arm-none-eabi/include/c++/13.2.1/cmath ****   fabs(long double __x)
 239:/Applications/ArmGNUToolchain/13.2.Rel1/arm-none-eabi/arm-none-eabi/include/c++/13.2.1/cmath ****   { return __builtin_fabsl(__x); }
 240:/Applications/ArmGNUToolchain/13.2.Rel1/arm-none-eabi/arm-none-eabi/include/c++/13.2.1/cmath **** #endif
 241:/Applications/ArmGNUToolchain/13.2.Rel1/arm-none-eabi/arm-none-eabi/include/c++/13.2.1/cmath **** 
 242:/Applications/ArmGNUToolchain/13.2.Rel1/arm-none-eabi/arm-none-eabi/include/c++/13.2.1/cmath ****   template<typename _Tp>
 243:/Applications/ArmGNUToolchain/13.2.Rel1/arm-none-eabi/arm-none-eabi/include/c++/13.2.1/cmath ****     inline _GLIBCXX_CONSTEXPR
 244:/Applications/ArmGNUToolchain/13.2.Rel1/arm-none-eabi/arm-none-eabi/include/c++/13.2.1/cmath ****     typename __gnu_cxx::__enable_if<__is_integer<_Tp>::__value,
 245:/Applications/ArmGNUToolchain/13.2.Rel1/arm-none-eabi/arm-none-eabi/include/c++/13.2.1/cmath ****                                     double>::__type
 246:/Applications/ArmGNUToolchain/13.2.Rel1/arm-none-eabi/arm-none-eabi/include/c++/13.2.1/cmath ****     fabs(_Tp __x)
 247:/Applications/ArmGNUToolchain/13.2.Rel1/arm-none-eabi/arm-none-eabi/include/c++/13.2.1/cmath ****     { return __builtin_fabs(__x); }
 248:/Applications/ArmGNUToolchain/13.2.Rel1/arm-none-eabi/arm-none-eabi/include/c++/13.2.1/cmath **** 
 249:/Applications/ArmGNUToolchain/13.2.Rel1/arm-none-eabi/arm-none-eabi/include/c++/13.2.1/cmath ****   using ::floor;
 250:/Applications/ArmGNUToolchain/13.2.Rel1/arm-none-eabi/arm-none-eabi/include/c++/13.2.1/cmath **** 
 251:/Applications/ArmGNUToolchain/13.2.Rel1/arm-none-eabi/arm-none-eabi/include/c++/13.2.1/cmath **** #ifndef __CORRECT_ISO_CPP_MATH_H_PROTO
 252:/Applications/ArmGNUToolchain/13.2.Rel1/arm-none-eabi/arm-none-eabi/include/c++/13.2.1/cmath ****   inline _GLIBCXX_CONSTEXPR float
 253:/Applications/ArmGNUToolchain/13.2.Rel1/arm-none-eabi/arm-none-eabi/include/c++/13.2.1/cmath ****   floor(float __x)
 254:/Applications/ArmGNUToolchain/13.2.Rel1/arm-none-eabi/arm-none-eabi/include/c++/13.2.1/cmath ****   { return __builtin_floorf(__x); }
 255:/Applications/ArmGNUToolchain/13.2.Rel1/arm-none-eabi/arm-none-eabi/include/c++/13.2.1/cmath **** 
 256:/Applications/ArmGNUToolchain/13.2.Rel1/arm-none-eabi/arm-none-eabi/include/c++/13.2.1/cmath ****   inline _GLIBCXX_CONSTEXPR long double
 257:/Applications/ArmGNUToolchain/13.2.Rel1/arm-none-eabi/arm-none-eabi/include/c++/13.2.1/cmath ****   floor(long double __x)
 258:/Applications/ArmGNUToolchain/13.2.Rel1/arm-none-eabi/arm-none-eabi/include/c++/13.2.1/cmath ****   { return __builtin_floorl(__x); }
 259:/Applications/ArmGNUToolchain/13.2.Rel1/arm-none-eabi/arm-none-eabi/include/c++/13.2.1/cmath **** #endif
 260:/Applications/ArmGNUToolchain/13.2.Rel1/arm-none-eabi/arm-none-eabi/include/c++/13.2.1/cmath **** 
 261:/Applications/ArmGNUToolchain/13.2.Rel1/arm-none-eabi/arm-none-eabi/include/c++/13.2.1/cmath ****   template<typename _Tp>
 262:/Applications/ArmGNUToolchain/13.2.Rel1/arm-none-eabi/arm-none-eabi/include/c++/13.2.1/cmath ****     inline _GLIBCXX_CONSTEXPR
 263:/Applications/ArmGNUToolchain/13.2.Rel1/arm-none-eabi/arm-none-eabi/include/c++/13.2.1/cmath ****     typename __gnu_cxx::__enable_if<__is_integer<_Tp>::__value,
 264:/Applications/ArmGNUToolchain/13.2.Rel1/arm-none-eabi/arm-none-eabi/include/c++/13.2.1/cmath ****                                     double>::__type
 265:/Applications/ArmGNUToolchain/13.2.Rel1/arm-none-eabi/arm-none-eabi/include/c++/13.2.1/cmath ****     floor(_Tp __x)
 266:/Applications/ArmGNUToolchain/13.2.Rel1/arm-none-eabi/arm-none-eabi/include/c++/13.2.1/cmath ****     { return __builtin_floor(__x); }
 267:/Applications/ArmGNUToolchain/13.2.Rel1/arm-none-eabi/arm-none-eabi/include/c++/13.2.1/cmath **** 
 268:/Applications/ArmGNUToolchain/13.2.Rel1/arm-none-eabi/arm-none-eabi/include/c++/13.2.1/cmath ****   using ::fmod;
 269:/Applications/ArmGNUToolchain/13.2.Rel1/arm-none-eabi/arm-none-eabi/include/c++/13.2.1/cmath **** 
 270:/Applications/ArmGNUToolchain/13.2.Rel1/arm-none-eabi/arm-none-eabi/include/c++/13.2.1/cmath **** #ifndef __CORRECT_ISO_CPP_MATH_H_PROTO
 271:/Applications/ArmGNUToolchain/13.2.Rel1/arm-none-eabi/arm-none-eabi/include/c++/13.2.1/cmath ****   inline _GLIBCXX_CONSTEXPR float
 272:/Applications/ArmGNUToolchain/13.2.Rel1/arm-none-eabi/arm-none-eabi/include/c++/13.2.1/cmath ****   fmod(float __x, float __y)
 273:/Applications/ArmGNUToolchain/13.2.Rel1/arm-none-eabi/arm-none-eabi/include/c++/13.2.1/cmath ****   { return __builtin_fmodf(__x, __y); }
 274:/Applications/ArmGNUToolchain/13.2.Rel1/arm-none-eabi/arm-none-eabi/include/c++/13.2.1/cmath **** 
 275:/Applications/ArmGNUToolchain/13.2.Rel1/arm-none-eabi/arm-none-eabi/include/c++/13.2.1/cmath ****   inline _GLIBCXX_CONSTEXPR long double
 276:/Applications/ArmGNUToolchain/13.2.Rel1/arm-none-eabi/arm-none-eabi/include/c++/13.2.1/cmath ****   fmod(long double __x, long double __y)
 277:/Applications/ArmGNUToolchain/13.2.Rel1/arm-none-eabi/arm-none-eabi/include/c++/13.2.1/cmath ****   { return __builtin_fmodl(__x, __y); }
 278:/Applications/ArmGNUToolchain/13.2.Rel1/arm-none-eabi/arm-none-eabi/include/c++/13.2.1/cmath **** #endif
 279:/Applications/ArmGNUToolchain/13.2.Rel1/arm-none-eabi/arm-none-eabi/include/c++/13.2.1/cmath **** 
 280:/Applications/ArmGNUToolchain/13.2.Rel1/arm-none-eabi/arm-none-eabi/include/c++/13.2.1/cmath ****   using ::frexp;
 281:/Applications/ArmGNUToolchain/13.2.Rel1/arm-none-eabi/arm-none-eabi/include/c++/13.2.1/cmath **** 
 282:/Applications/ArmGNUToolchain/13.2.Rel1/arm-none-eabi/arm-none-eabi/include/c++/13.2.1/cmath **** #ifndef __CORRECT_ISO_CPP_MATH_H_PROTO
 283:/Applications/ArmGNUToolchain/13.2.Rel1/arm-none-eabi/arm-none-eabi/include/c++/13.2.1/cmath ****   inline float
 284:/Applications/ArmGNUToolchain/13.2.Rel1/arm-none-eabi/arm-none-eabi/include/c++/13.2.1/cmath ****   frexp(float __x, int* __exp)
 285:/Applications/ArmGNUToolchain/13.2.Rel1/arm-none-eabi/arm-none-eabi/include/c++/13.2.1/cmath ****   { return __builtin_frexpf(__x, __exp); }
 286:/Applications/ArmGNUToolchain/13.2.Rel1/arm-none-eabi/arm-none-eabi/include/c++/13.2.1/cmath **** 
 287:/Applications/ArmGNUToolchain/13.2.Rel1/arm-none-eabi/arm-none-eabi/include/c++/13.2.1/cmath ****   inline long double
ARM GAS  /var/folders/g0/l1whnkgn26zgpvrkcv2dxrg40000gn/T//ccwTptqb.s 			page 62


 288:/Applications/ArmGNUToolchain/13.2.Rel1/arm-none-eabi/arm-none-eabi/include/c++/13.2.1/cmath ****   frexp(long double __x, int* __exp)
 289:/Applications/ArmGNUToolchain/13.2.Rel1/arm-none-eabi/arm-none-eabi/include/c++/13.2.1/cmath ****   { return __builtin_frexpl(__x, __exp); }
 290:/Applications/ArmGNUToolchain/13.2.Rel1/arm-none-eabi/arm-none-eabi/include/c++/13.2.1/cmath **** #endif
 291:/Applications/ArmGNUToolchain/13.2.Rel1/arm-none-eabi/arm-none-eabi/include/c++/13.2.1/cmath **** 
 292:/Applications/ArmGNUToolchain/13.2.Rel1/arm-none-eabi/arm-none-eabi/include/c++/13.2.1/cmath ****   template<typename _Tp>
 293:/Applications/ArmGNUToolchain/13.2.Rel1/arm-none-eabi/arm-none-eabi/include/c++/13.2.1/cmath ****     inline _GLIBCXX_CONSTEXPR
 294:/Applications/ArmGNUToolchain/13.2.Rel1/arm-none-eabi/arm-none-eabi/include/c++/13.2.1/cmath ****     typename __gnu_cxx::__enable_if<__is_integer<_Tp>::__value, 
 295:/Applications/ArmGNUToolchain/13.2.Rel1/arm-none-eabi/arm-none-eabi/include/c++/13.2.1/cmath ****                                     double>::__type
 296:/Applications/ArmGNUToolchain/13.2.Rel1/arm-none-eabi/arm-none-eabi/include/c++/13.2.1/cmath ****     frexp(_Tp __x, int* __exp)
 297:/Applications/ArmGNUToolchain/13.2.Rel1/arm-none-eabi/arm-none-eabi/include/c++/13.2.1/cmath ****     { return __builtin_frexp(__x, __exp); }
 298:/Applications/ArmGNUToolchain/13.2.Rel1/arm-none-eabi/arm-none-eabi/include/c++/13.2.1/cmath **** 
 299:/Applications/ArmGNUToolchain/13.2.Rel1/arm-none-eabi/arm-none-eabi/include/c++/13.2.1/cmath ****   using ::ldexp;
 300:/Applications/ArmGNUToolchain/13.2.Rel1/arm-none-eabi/arm-none-eabi/include/c++/13.2.1/cmath **** 
 301:/Applications/ArmGNUToolchain/13.2.Rel1/arm-none-eabi/arm-none-eabi/include/c++/13.2.1/cmath **** #ifndef __CORRECT_ISO_CPP_MATH_H_PROTO
 302:/Applications/ArmGNUToolchain/13.2.Rel1/arm-none-eabi/arm-none-eabi/include/c++/13.2.1/cmath ****   inline _GLIBCXX_CONSTEXPR float
 303:/Applications/ArmGNUToolchain/13.2.Rel1/arm-none-eabi/arm-none-eabi/include/c++/13.2.1/cmath ****   ldexp(float __x, int __exp)
 304:/Applications/ArmGNUToolchain/13.2.Rel1/arm-none-eabi/arm-none-eabi/include/c++/13.2.1/cmath ****   { return __builtin_ldexpf(__x, __exp); }
 305:/Applications/ArmGNUToolchain/13.2.Rel1/arm-none-eabi/arm-none-eabi/include/c++/13.2.1/cmath **** 
 306:/Applications/ArmGNUToolchain/13.2.Rel1/arm-none-eabi/arm-none-eabi/include/c++/13.2.1/cmath ****   inline _GLIBCXX_CONSTEXPR long double
 307:/Applications/ArmGNUToolchain/13.2.Rel1/arm-none-eabi/arm-none-eabi/include/c++/13.2.1/cmath ****   ldexp(long double __x, int __exp)
 308:/Applications/ArmGNUToolchain/13.2.Rel1/arm-none-eabi/arm-none-eabi/include/c++/13.2.1/cmath ****   { return __builtin_ldexpl(__x, __exp); }
 309:/Applications/ArmGNUToolchain/13.2.Rel1/arm-none-eabi/arm-none-eabi/include/c++/13.2.1/cmath **** #endif
 310:/Applications/ArmGNUToolchain/13.2.Rel1/arm-none-eabi/arm-none-eabi/include/c++/13.2.1/cmath **** 
 311:/Applications/ArmGNUToolchain/13.2.Rel1/arm-none-eabi/arm-none-eabi/include/c++/13.2.1/cmath ****   template<typename _Tp>
 312:/Applications/ArmGNUToolchain/13.2.Rel1/arm-none-eabi/arm-none-eabi/include/c++/13.2.1/cmath ****     inline _GLIBCXX_CONSTEXPR
 313:/Applications/ArmGNUToolchain/13.2.Rel1/arm-none-eabi/arm-none-eabi/include/c++/13.2.1/cmath ****     typename __gnu_cxx::__enable_if<__is_integer<_Tp>::__value, 
 314:/Applications/ArmGNUToolchain/13.2.Rel1/arm-none-eabi/arm-none-eabi/include/c++/13.2.1/cmath ****                                     double>::__type
 315:/Applications/ArmGNUToolchain/13.2.Rel1/arm-none-eabi/arm-none-eabi/include/c++/13.2.1/cmath ****     ldexp(_Tp __x, int __exp)
 316:/Applications/ArmGNUToolchain/13.2.Rel1/arm-none-eabi/arm-none-eabi/include/c++/13.2.1/cmath ****     { return __builtin_ldexp(__x, __exp); }
 317:/Applications/ArmGNUToolchain/13.2.Rel1/arm-none-eabi/arm-none-eabi/include/c++/13.2.1/cmath **** 
 318:/Applications/ArmGNUToolchain/13.2.Rel1/arm-none-eabi/arm-none-eabi/include/c++/13.2.1/cmath ****   using ::log;
 319:/Applications/ArmGNUToolchain/13.2.Rel1/arm-none-eabi/arm-none-eabi/include/c++/13.2.1/cmath **** 
 320:/Applications/ArmGNUToolchain/13.2.Rel1/arm-none-eabi/arm-none-eabi/include/c++/13.2.1/cmath **** #ifndef __CORRECT_ISO_CPP_MATH_H_PROTO
 321:/Applications/ArmGNUToolchain/13.2.Rel1/arm-none-eabi/arm-none-eabi/include/c++/13.2.1/cmath ****   inline _GLIBCXX_CONSTEXPR float
 322:/Applications/ArmGNUToolchain/13.2.Rel1/arm-none-eabi/arm-none-eabi/include/c++/13.2.1/cmath ****   log(float __x)
 323:/Applications/ArmGNUToolchain/13.2.Rel1/arm-none-eabi/arm-none-eabi/include/c++/13.2.1/cmath ****   { return __builtin_logf(__x); }
 324:/Applications/ArmGNUToolchain/13.2.Rel1/arm-none-eabi/arm-none-eabi/include/c++/13.2.1/cmath **** 
 325:/Applications/ArmGNUToolchain/13.2.Rel1/arm-none-eabi/arm-none-eabi/include/c++/13.2.1/cmath ****   inline _GLIBCXX_CONSTEXPR long double
 326:/Applications/ArmGNUToolchain/13.2.Rel1/arm-none-eabi/arm-none-eabi/include/c++/13.2.1/cmath ****   log(long double __x)
 327:/Applications/ArmGNUToolchain/13.2.Rel1/arm-none-eabi/arm-none-eabi/include/c++/13.2.1/cmath ****   { return __builtin_logl(__x); }
 328:/Applications/ArmGNUToolchain/13.2.Rel1/arm-none-eabi/arm-none-eabi/include/c++/13.2.1/cmath **** #endif
 329:/Applications/ArmGNUToolchain/13.2.Rel1/arm-none-eabi/arm-none-eabi/include/c++/13.2.1/cmath **** 
 330:/Applications/ArmGNUToolchain/13.2.Rel1/arm-none-eabi/arm-none-eabi/include/c++/13.2.1/cmath ****   template<typename _Tp>
 331:/Applications/ArmGNUToolchain/13.2.Rel1/arm-none-eabi/arm-none-eabi/include/c++/13.2.1/cmath ****     inline _GLIBCXX_CONSTEXPR
 332:/Applications/ArmGNUToolchain/13.2.Rel1/arm-none-eabi/arm-none-eabi/include/c++/13.2.1/cmath ****     typename __gnu_cxx::__enable_if<__is_integer<_Tp>::__value, 
 333:/Applications/ArmGNUToolchain/13.2.Rel1/arm-none-eabi/arm-none-eabi/include/c++/13.2.1/cmath ****                                     double>::__type
 334:/Applications/ArmGNUToolchain/13.2.Rel1/arm-none-eabi/arm-none-eabi/include/c++/13.2.1/cmath ****     log(_Tp __x)
 335:/Applications/ArmGNUToolchain/13.2.Rel1/arm-none-eabi/arm-none-eabi/include/c++/13.2.1/cmath ****     { return __builtin_log(__x); }
 336:/Applications/ArmGNUToolchain/13.2.Rel1/arm-none-eabi/arm-none-eabi/include/c++/13.2.1/cmath **** 
 337:/Applications/ArmGNUToolchain/13.2.Rel1/arm-none-eabi/arm-none-eabi/include/c++/13.2.1/cmath ****   using ::log10;
 338:/Applications/ArmGNUToolchain/13.2.Rel1/arm-none-eabi/arm-none-eabi/include/c++/13.2.1/cmath **** 
 339:/Applications/ArmGNUToolchain/13.2.Rel1/arm-none-eabi/arm-none-eabi/include/c++/13.2.1/cmath **** #ifndef __CORRECT_ISO_CPP_MATH_H_PROTO
 340:/Applications/ArmGNUToolchain/13.2.Rel1/arm-none-eabi/arm-none-eabi/include/c++/13.2.1/cmath ****   inline _GLIBCXX_CONSTEXPR float
 341:/Applications/ArmGNUToolchain/13.2.Rel1/arm-none-eabi/arm-none-eabi/include/c++/13.2.1/cmath ****   log10(float __x)
 342:/Applications/ArmGNUToolchain/13.2.Rel1/arm-none-eabi/arm-none-eabi/include/c++/13.2.1/cmath ****   { return __builtin_log10f(__x); }
 343:/Applications/ArmGNUToolchain/13.2.Rel1/arm-none-eabi/arm-none-eabi/include/c++/13.2.1/cmath **** 
 344:/Applications/ArmGNUToolchain/13.2.Rel1/arm-none-eabi/arm-none-eabi/include/c++/13.2.1/cmath ****   inline _GLIBCXX_CONSTEXPR long double
ARM GAS  /var/folders/g0/l1whnkgn26zgpvrkcv2dxrg40000gn/T//ccwTptqb.s 			page 63


 345:/Applications/ArmGNUToolchain/13.2.Rel1/arm-none-eabi/arm-none-eabi/include/c++/13.2.1/cmath ****   log10(long double __x)
 346:/Applications/ArmGNUToolchain/13.2.Rel1/arm-none-eabi/arm-none-eabi/include/c++/13.2.1/cmath ****   { return __builtin_log10l(__x); }
 347:/Applications/ArmGNUToolchain/13.2.Rel1/arm-none-eabi/arm-none-eabi/include/c++/13.2.1/cmath **** #endif
 348:/Applications/ArmGNUToolchain/13.2.Rel1/arm-none-eabi/arm-none-eabi/include/c++/13.2.1/cmath **** 
 349:/Applications/ArmGNUToolchain/13.2.Rel1/arm-none-eabi/arm-none-eabi/include/c++/13.2.1/cmath ****   template<typename _Tp>
 350:/Applications/ArmGNUToolchain/13.2.Rel1/arm-none-eabi/arm-none-eabi/include/c++/13.2.1/cmath ****     inline _GLIBCXX_CONSTEXPR
 351:/Applications/ArmGNUToolchain/13.2.Rel1/arm-none-eabi/arm-none-eabi/include/c++/13.2.1/cmath ****     typename __gnu_cxx::__enable_if<__is_integer<_Tp>::__value,
 352:/Applications/ArmGNUToolchain/13.2.Rel1/arm-none-eabi/arm-none-eabi/include/c++/13.2.1/cmath ****                                     double>::__type
 353:/Applications/ArmGNUToolchain/13.2.Rel1/arm-none-eabi/arm-none-eabi/include/c++/13.2.1/cmath ****     log10(_Tp __x)
 354:/Applications/ArmGNUToolchain/13.2.Rel1/arm-none-eabi/arm-none-eabi/include/c++/13.2.1/cmath ****     { return __builtin_log10(__x); }
 355:/Applications/ArmGNUToolchain/13.2.Rel1/arm-none-eabi/arm-none-eabi/include/c++/13.2.1/cmath **** 
 356:/Applications/ArmGNUToolchain/13.2.Rel1/arm-none-eabi/arm-none-eabi/include/c++/13.2.1/cmath ****   using ::modf;
 357:/Applications/ArmGNUToolchain/13.2.Rel1/arm-none-eabi/arm-none-eabi/include/c++/13.2.1/cmath **** 
 358:/Applications/ArmGNUToolchain/13.2.Rel1/arm-none-eabi/arm-none-eabi/include/c++/13.2.1/cmath **** #ifndef __CORRECT_ISO_CPP_MATH_H_PROTO
 359:/Applications/ArmGNUToolchain/13.2.Rel1/arm-none-eabi/arm-none-eabi/include/c++/13.2.1/cmath ****   inline float
 360:/Applications/ArmGNUToolchain/13.2.Rel1/arm-none-eabi/arm-none-eabi/include/c++/13.2.1/cmath ****   modf(float __x, float* __iptr)
 361:/Applications/ArmGNUToolchain/13.2.Rel1/arm-none-eabi/arm-none-eabi/include/c++/13.2.1/cmath ****   { return __builtin_modff(__x, __iptr); }
 362:/Applications/ArmGNUToolchain/13.2.Rel1/arm-none-eabi/arm-none-eabi/include/c++/13.2.1/cmath **** 
 363:/Applications/ArmGNUToolchain/13.2.Rel1/arm-none-eabi/arm-none-eabi/include/c++/13.2.1/cmath ****   inline long double
 364:/Applications/ArmGNUToolchain/13.2.Rel1/arm-none-eabi/arm-none-eabi/include/c++/13.2.1/cmath ****   modf(long double __x, long double* __iptr)
 365:/Applications/ArmGNUToolchain/13.2.Rel1/arm-none-eabi/arm-none-eabi/include/c++/13.2.1/cmath ****   { return __builtin_modfl(__x, __iptr); }
 366:/Applications/ArmGNUToolchain/13.2.Rel1/arm-none-eabi/arm-none-eabi/include/c++/13.2.1/cmath **** #endif
 367:/Applications/ArmGNUToolchain/13.2.Rel1/arm-none-eabi/arm-none-eabi/include/c++/13.2.1/cmath **** 
 368:/Applications/ArmGNUToolchain/13.2.Rel1/arm-none-eabi/arm-none-eabi/include/c++/13.2.1/cmath ****   using ::pow;
 369:/Applications/ArmGNUToolchain/13.2.Rel1/arm-none-eabi/arm-none-eabi/include/c++/13.2.1/cmath **** 
 370:/Applications/ArmGNUToolchain/13.2.Rel1/arm-none-eabi/arm-none-eabi/include/c++/13.2.1/cmath **** #ifndef __CORRECT_ISO_CPP_MATH_H_PROTO
 371:/Applications/ArmGNUToolchain/13.2.Rel1/arm-none-eabi/arm-none-eabi/include/c++/13.2.1/cmath ****   inline _GLIBCXX_CONSTEXPR float
 372:/Applications/ArmGNUToolchain/13.2.Rel1/arm-none-eabi/arm-none-eabi/include/c++/13.2.1/cmath ****   pow(float __x, float __y)
 373:/Applications/ArmGNUToolchain/13.2.Rel1/arm-none-eabi/arm-none-eabi/include/c++/13.2.1/cmath ****   { return __builtin_powf(__x, __y); }
 374:/Applications/ArmGNUToolchain/13.2.Rel1/arm-none-eabi/arm-none-eabi/include/c++/13.2.1/cmath **** 
 375:/Applications/ArmGNUToolchain/13.2.Rel1/arm-none-eabi/arm-none-eabi/include/c++/13.2.1/cmath ****   inline _GLIBCXX_CONSTEXPR long double
 376:/Applications/ArmGNUToolchain/13.2.Rel1/arm-none-eabi/arm-none-eabi/include/c++/13.2.1/cmath ****   pow(long double __x, long double __y)
 377:/Applications/ArmGNUToolchain/13.2.Rel1/arm-none-eabi/arm-none-eabi/include/c++/13.2.1/cmath ****   { return __builtin_powl(__x, __y); }
 378:/Applications/ArmGNUToolchain/13.2.Rel1/arm-none-eabi/arm-none-eabi/include/c++/13.2.1/cmath **** 
 379:/Applications/ArmGNUToolchain/13.2.Rel1/arm-none-eabi/arm-none-eabi/include/c++/13.2.1/cmath **** #if __cplusplus < 201103L
 380:/Applications/ArmGNUToolchain/13.2.Rel1/arm-none-eabi/arm-none-eabi/include/c++/13.2.1/cmath ****   // _GLIBCXX_RESOLVE_LIB_DEFECTS
 381:/Applications/ArmGNUToolchain/13.2.Rel1/arm-none-eabi/arm-none-eabi/include/c++/13.2.1/cmath ****   // DR 550. What should the return type of pow(float,int) be?
 382:/Applications/ArmGNUToolchain/13.2.Rel1/arm-none-eabi/arm-none-eabi/include/c++/13.2.1/cmath ****   inline double
 383:/Applications/ArmGNUToolchain/13.2.Rel1/arm-none-eabi/arm-none-eabi/include/c++/13.2.1/cmath ****   pow(double __x, int __i)
 384:/Applications/ArmGNUToolchain/13.2.Rel1/arm-none-eabi/arm-none-eabi/include/c++/13.2.1/cmath ****   { return __builtin_powi(__x, __i); }
 385:/Applications/ArmGNUToolchain/13.2.Rel1/arm-none-eabi/arm-none-eabi/include/c++/13.2.1/cmath **** 
 386:/Applications/ArmGNUToolchain/13.2.Rel1/arm-none-eabi/arm-none-eabi/include/c++/13.2.1/cmath ****   inline float
 387:/Applications/ArmGNUToolchain/13.2.Rel1/arm-none-eabi/arm-none-eabi/include/c++/13.2.1/cmath ****   pow(float __x, int __n)
 388:/Applications/ArmGNUToolchain/13.2.Rel1/arm-none-eabi/arm-none-eabi/include/c++/13.2.1/cmath ****   { return __builtin_powif(__x, __n); }
 389:/Applications/ArmGNUToolchain/13.2.Rel1/arm-none-eabi/arm-none-eabi/include/c++/13.2.1/cmath **** 
 390:/Applications/ArmGNUToolchain/13.2.Rel1/arm-none-eabi/arm-none-eabi/include/c++/13.2.1/cmath ****   inline long double
 391:/Applications/ArmGNUToolchain/13.2.Rel1/arm-none-eabi/arm-none-eabi/include/c++/13.2.1/cmath ****   pow(long double __x, int __n)
 392:/Applications/ArmGNUToolchain/13.2.Rel1/arm-none-eabi/arm-none-eabi/include/c++/13.2.1/cmath ****   { return __builtin_powil(__x, __n); }
 393:/Applications/ArmGNUToolchain/13.2.Rel1/arm-none-eabi/arm-none-eabi/include/c++/13.2.1/cmath **** #endif
 394:/Applications/ArmGNUToolchain/13.2.Rel1/arm-none-eabi/arm-none-eabi/include/c++/13.2.1/cmath **** #endif
 395:/Applications/ArmGNUToolchain/13.2.Rel1/arm-none-eabi/arm-none-eabi/include/c++/13.2.1/cmath **** 
 396:/Applications/ArmGNUToolchain/13.2.Rel1/arm-none-eabi/arm-none-eabi/include/c++/13.2.1/cmath ****   using ::sin;
 397:/Applications/ArmGNUToolchain/13.2.Rel1/arm-none-eabi/arm-none-eabi/include/c++/13.2.1/cmath **** 
 398:/Applications/ArmGNUToolchain/13.2.Rel1/arm-none-eabi/arm-none-eabi/include/c++/13.2.1/cmath **** #ifndef __CORRECT_ISO_CPP_MATH_H_PROTO
 399:/Applications/ArmGNUToolchain/13.2.Rel1/arm-none-eabi/arm-none-eabi/include/c++/13.2.1/cmath ****   inline _GLIBCXX_CONSTEXPR float
 400:/Applications/ArmGNUToolchain/13.2.Rel1/arm-none-eabi/arm-none-eabi/include/c++/13.2.1/cmath ****   sin(float __x)
 401:/Applications/ArmGNUToolchain/13.2.Rel1/arm-none-eabi/arm-none-eabi/include/c++/13.2.1/cmath ****   { return __builtin_sinf(__x); }
ARM GAS  /var/folders/g0/l1whnkgn26zgpvrkcv2dxrg40000gn/T//ccwTptqb.s 			page 64


 1525              		.loc 13 401 26 view .LVU338
 1526 006c B0EE680A 		vmov.f32	s0, s17
 1527              	.LBE793:
 1528              	.LBE792:
 315:../../libDaisy//src/hid/disp/display.h ****         start_y = -sin(start_angle_rad) * radius;
 1529              		.loc 12 315 17 discriminator 1 view .LVU339
 1530 0070 F8EE679A 		vcvt.f32.u32	s19, s15
 1531              	.LBB796:
 1532              	.LBB794:
 1533              		.loc 13 401 26 view .LVU340
 1534 0074 FFF7FEFF 		bl	sinf
 1535              	.LVL114:
 1536 0078 F0EE408A 		vmov.f32	s17, s0
 1537              	.LVL115:
 1538              		.loc 13 401 26 view .LVU341
 1539              	.LBE794:
 1540              	.LBE796:
 1541              	.LBB797:
 1542              	.LBB798:
 178:/Applications/ArmGNUToolchain/13.2.Rel1/arm-none-eabi/arm-none-eabi/include/c++/13.2.1/cmath **** 
 1543              		.loc 13 178 26 view .LVU342
 1544 007c B0EE4A0A 		vmov.f32	s0, s20
 1545 0080 FFF7FEFF 		bl	cosf
 1546              	.LVL116:
 1547 0084 B0EE409A 		vmov.f32	s18, s0
 1548              	.LBE798:
 1549              	.LBE797:
 1550              	.LBB800:
 1551              	.LBB801:
 1552              		.loc 13 401 26 view .LVU343
 1553 0088 B0EE4A0A 		vmov.f32	s0, s20
 1554 008c FFF7FEFF 		bl	sinf
 1555              	.LVL117:
 1556              	.LBE801:
 1557              	.LBE800:
 316:../../libDaisy//src/hid/disp/display.h ****         end_x   = cos(end_angle_rad) * radius;
 1558              		.loc 12 316 17 discriminator 1 view .LVU344
 1559 0090 68EEE98A 		vnmul.f32	s17, s17, s19
 318:../../libDaisy//src/hid/disp/display.h **** 
 1560              		.loc 12 318 17 discriminator 1 view .LVU345
 1561 0094 20EE690A 		vnmul.f32	s0, s0, s19
 315:../../libDaisy//src/hid/disp/display.h ****         start_y = -sin(start_angle_rad) * radius;
 1562              		.loc 12 315 17 discriminator 1 view .LVU346
 1563 0098 29EE888A 		vmul.f32	s16, s19, s16
 1564              	.LVL118:
 1565              	.LBB803:
 1566              	.LBI792:
 400:/Applications/ArmGNUToolchain/13.2.Rel1/arm-none-eabi/arm-none-eabi/include/c++/13.2.1/cmath ****   { return __builtin_sinf(__x); }
 1567              		.loc 13 400 3 is_stmt 1 view .LVU347
 1568              	.LBB795:
 1569              		.loc 13 401 5 view .LVU348
 1570              		.loc 13 401 5 is_stmt 0 view .LVU349
 1571              	.LBE795:
 1572              	.LBE803:
 1573              	.LBB804:
 1574              	.LBI797:
 177:/Applications/ArmGNUToolchain/13.2.Rel1/arm-none-eabi/arm-none-eabi/include/c++/13.2.1/cmath ****   { return __builtin_cosf(__x); }
ARM GAS  /var/folders/g0/l1whnkgn26zgpvrkcv2dxrg40000gn/T//ccwTptqb.s 			page 65


 1575              		.loc 13 177 3 is_stmt 1 view .LVU350
 1576              	.LBB799:
 178:/Applications/ArmGNUToolchain/13.2.Rel1/arm-none-eabi/arm-none-eabi/include/c++/13.2.1/cmath **** 
 1577              		.loc 13 178 5 view .LVU351
 178:/Applications/ArmGNUToolchain/13.2.Rel1/arm-none-eabi/arm-none-eabi/include/c++/13.2.1/cmath **** 
 1578              		.loc 13 178 5 is_stmt 0 view .LVU352
 1579              	.LBE799:
 1580              	.LBE804:
 317:../../libDaisy//src/hid/disp/display.h ****         end_y   = -sin(end_angle_rad) * radius;
 1581              		.loc 12 317 17 discriminator 1 view .LVU353
 1582 009c 29EE899A 		vmul.f32	s18, s19, s18
 1583              	.LVL119:
 1584              	.LBB805:
 1585              	.LBI800:
 400:/Applications/ArmGNUToolchain/13.2.Rel1/arm-none-eabi/arm-none-eabi/include/c++/13.2.1/cmath ****   { return __builtin_sinf(__x); }
 1586              		.loc 13 400 3 is_stmt 1 view .LVU354
 1587              	.LBB802:
 1588              		.loc 13 401 5 view .LVU355
 1589              		.loc 13 401 5 is_stmt 0 view .LVU356
 1590              	.LBE802:
 1591              	.LBE805:
 322:../../libDaisy//src/hid/disp/display.h ****            < 2.0f)
 1592              		.loc 12 322 25 view .LVU357
 1593 00a0 70EE687A 		vsub.f32	s15, s0, s17
 321:../../libDaisy//src/hid/disp/display.h ****                + (end_y - start_y) * (end_y - start_y)
 1594              		.loc 12 321 9 view .LVU358
 1595 00a4 F0EE006A 		vmov.f32	s13, #2.0e+0
 321:../../libDaisy//src/hid/disp/display.h ****                + (end_y - start_y) * (end_y - start_y)
 1596              		.loc 12 321 19 view .LVU359
 1597 00a8 39EE487A 		vsub.f32	s14, s18, s16
 322:../../libDaisy//src/hid/disp/display.h ****            < 2.0f)
 1598              		.loc 12 322 36 view .LVU360
 1599 00ac 67EEA77A 		vmul.f32	s15, s15, s15
 322:../../libDaisy//src/hid/disp/display.h ****            < 2.0f)
 1600              		.loc 12 322 16 view .LVU361
 1601 00b0 E7EE077A 		vfma.f32	s15, s14, s14
 321:../../libDaisy//src/hid/disp/display.h ****                + (end_y - start_y) * (end_y - start_y)
 1602              		.loc 12 321 9 view .LVU362
 1603 00b4 F4EEE67A 		vcmpe.f32	s15, s13
 1604 00b8 F1EE10FA 		vmrs	APSR_nzcv, FPSCR
 1605 00bc 06D5     		bpl	.L160
 325:../../libDaisy//src/hid/disp/display.h ****                 circle = true;
 1606              		.loc 12 325 13 view .LVU363
 1607 00be 139B     		ldr	r3, [sp, #76]
 1608 00c0 B42B     		cmp	r3, #180
 1609 00c2 40F39C80 		ble	.L101
 326:../../libDaisy//src/hid/disp/display.h ****             else
 1610              		.loc 12 326 24 view .LVU364
 1611 00c6 4FF00109 		mov	r9, #1
 1612 00ca 01E0     		b	.L103
 1613              	.L160:
 304:../../libDaisy//src/hid/disp/display.h **** 
 1614              		.loc 12 304 14 view .LVU365
 1615 00cc 4FF00009 		mov	r9, #0
 1616              	.L103:
 1617              	.LVL120:
 302:../../libDaisy//src/hid/disp/display.h **** 
ARM GAS  /var/folders/g0/l1whnkgn26zgpvrkcv2dxrg40000gn/T//ccwTptqb.s 			page 66


 1618              		.loc 12 302 27 view .LVU366
 1619 00d0 0124     		movs	r4, #1
 333:../../libDaisy//src/hid/disp/display.h ****         err = 2 - 2 * radius;
 1620              		.loc 12 333 13 view .LVU367
 1621 00d2 AE46     		mov	lr, r5
 332:../../libDaisy//src/hid/disp/display.h ****         t_y = 0;
 1622              		.loc 12 332 13 view .LVU368
 1623 00d4 C8F10003 		rsb	r3, r8, #0
 1624              	.LVL121:
 333:../../libDaisy//src/hid/disp/display.h ****         err = 2 - 2 * radius;
 1625              		.loc 12 333 13 view .LVU369
 1626 00d8 CDF80090 		str	r9, [sp]
 334:../../libDaisy//src/hid/disp/display.h **** 
 1627              		.loc 12 334 17 view .LVU370
 1628 00dc A4EB0800 		sub	r0, r4, r8
 302:../../libDaisy//src/hid/disp/display.h **** 
 1629              		.loc 12 302 17 view .LVU371
 1630 00e0 2146     		mov	r1, r4
 302:../../libDaisy//src/hid/disp/display.h **** 
 1631              		.loc 12 302 12 view .LVU372
 1632 00e2 2246     		mov	r2, r4
 333:../../libDaisy//src/hid/disp/display.h ****         err = 2 - 2 * radius;
 1633              		.loc 12 333 13 view .LVU373
 1634 00e4 4FF0000C 		mov	ip, #0
 334:../../libDaisy//src/hid/disp/display.h **** 
 1635              		.loc 12 334 17 view .LVU374
 1636 00e8 A040     		lsls	r0, r0, r4
 1637              	.LVL122:
 333:../../libDaisy//src/hid/disp/display.h ****         err = 2 - 2 * radius;
 1638              		.loc 12 333 13 view .LVU375
 1639 00ea 2546     		mov	r5, r4
 1640              	.LVL123:
 333:../../libDaisy//src/hid/disp/display.h ****         err = 2 - 2 * radius;
 1641              		.loc 12 333 13 view .LVU376
 1642 00ec B946     		mov	r9, r7
 1643              	.LVL124:
 333:../../libDaisy//src/hid/disp/display.h ****         err = 2 - 2 * radius;
 1644              		.loc 12 333 13 view .LVU377
 1645 00ee F046     		mov	r8, lr
 1646              	.LVL125:
 1647              	.L128:
 338:../../libDaisy//src/hid/disp/display.h ****             {
 1648              		.loc 12 338 13 view .LVU378
 1649 00f0 009F     		ldr	r7, [sp]
 1650 00f2 002F     		cmp	r7, #0
 1651 00f4 6AD1     		bne	.L105
 343:../../libDaisy//src/hid/disp/display.h ****                 t_exy  = end_x * t_y;
 1652              		.loc 12 343 34 view .LVU379
 1653 00f6 5942     		rsbs	r1, r3, #0
 1654              	.LVL126:
